; ModuleID = 'test.cpp'
source_filename = "test.cpp"
target datalayout = "e-m:o-p270:32:32-p271:32:32-p272:64:64-i64:64-f80:128-n8:16:32:64-S128"
target triple = "x86_64-apple-macosx14.0.0"

%"struct.std::__1::piecewise_construct_t" = type { i8 }
%"class.Halide::Runtime::Buffer" = type { %struct.halide_buffer_t, [2 x %struct.halide_dimension_t], %"struct.Halide::Runtime::AllocationHeader"*, %"struct.Halide::Runtime::DeviceRefCount"* }
%struct.halide_buffer_t = type { i64, %struct.halide_device_interface_t*, i8*, i64, %struct.halide_type_t, i32, %struct.halide_dimension_t*, i8* }
%struct.halide_device_interface_t = type { i32 (i8*, %struct.halide_buffer_t*, %struct.halide_device_interface_t*)*, i32 (i8*, %struct.halide_buffer_t*)*, i32 (i8*, %struct.halide_buffer_t*)*, void (i8*, %struct.halide_device_interface_t*)*, i32 (i8*, %struct.halide_buffer_t*)*, i32 (i8*, %struct.halide_buffer_t*, %struct.halide_device_interface_t*)*, i32 (i8*, %struct.halide_buffer_t*, %struct.halide_device_interface_t*)*, i32 (i8*, %struct.halide_buffer_t*)*, i32 (i8*, %struct.halide_buffer_t*, %struct.halide_device_interface_t*, %struct.halide_buffer_t*)*, i32 (i8*, %struct.halide_buffer_t*, %struct.halide_buffer_t*)*, i32 (i8*, %struct.halide_buffer_t*, i32, i32, %struct.halide_buffer_t*)*, i32 (i8*, %struct.halide_buffer_t*)*, i32 (i8*, %struct.halide_buffer_t*, i64, %struct.halide_device_interface_t*)*, i32 (i8*, %struct.halide_buffer_t*)*, i32 (i8*, i32*, i32*)*, %struct.halide_device_interface_impl_t* }
%struct.halide_device_interface_impl_t = type opaque
%struct.halide_type_t = type { i8, i8, i16 }
%struct.halide_dimension_t = type { i32, i32, i32, i32 }
%"struct.Halide::Runtime::AllocationHeader" = type <{ void (i8*)*, %"struct.std::__1::atomic", [4 x i8] }>
%"struct.std::__1::atomic" = type { %"struct.std::__1::__atomic_base" }
%"struct.std::__1::__atomic_base" = type { %"struct.std::__1::__atomic_base.0" }
%"struct.std::__1::__atomic_base.0" = type { %"struct.std::__1::__cxx_atomic_impl" }
%"struct.std::__1::__cxx_atomic_impl" = type { %"struct.std::__1::__cxx_atomic_base_impl" }
%"struct.std::__1::__cxx_atomic_base_impl" = type { i32 }
%"struct.Halide::Runtime::DeviceRefCount" = type { %"struct.std::__1::atomic", i32 }
%"class.std::__1::function" = type { %"class.std::__1::__function::__value_func" }
%"class.std::__1::__function::__value_func" = type { %"struct.std::__1::aligned_storage<24, 16>::type", %"class.std::__1::__function::__base"*, [8 x i8] }
%"struct.std::__1::aligned_storage<24, 16>::type" = type { [32 x i8] }
%"class.std::__1::__function::__base" = type { i32 (...)** }
%class.anon = type { %"class.Halide::Runtime::Buffer"*, %"class.Halide::Runtime::Buffer"*, %"class.Halide::Runtime::Buffer"* }
%"class.Halide::Runtime::Buffer<unsigned short, 2, 2>::Dimension" = type { %struct.halide_dimension_t* }
%"class.std::__1::chrono::time_point" = type { %"class.std::__1::chrono::duration" }
%"class.std::__1::chrono::duration" = type { i64 }
%class.anon.1 = type { %"class.Halide::Runtime::Buffer"*, %"class.Halide::Runtime::Buffer"* }
%class.anon.2 = type { %"class.Halide::Runtime::Buffer"*, %"class.Halide::Runtime::Buffer"* }
%struct.halide_filter_metadata_t = type { i32, i32, %struct.halide_filter_argument_t*, i8*, i8* }
%struct.halide_filter_argument_t = type { i8*, i32, i32, %struct.halide_type_t, %struct.halide_scalar_value_t*, %struct.halide_scalar_value_t*, %struct.halide_scalar_value_t*, %struct.halide_scalar_value_t*, i64** }
%struct.halide_scalar_value_t = type { %union.anon }
%union.anon = type { i64 }
%"class.std::__1::chrono::duration.3" = type { double }
%"struct.std::__1::__less" = type { i8 }
%"class.std::__1::bad_function_call" = type { %"class.std::exception" }
%"class.std::exception" = type { i32 (...)** }
%"struct.std::__1::chrono::__duration_cast" = type { i8 }
%class.anon.4 = type { i8 }
%"struct.std::__1::__less.5" = type { i8 }
%"struct.Halide::Runtime::Buffer<unsigned short, 2, 2>::DevRefCountCropped" = type { %"struct.Halide::Runtime::DeviceRefCount", %"class.Halide::Runtime::Buffer" }
%"struct.std::__1::__function::__maybe_derive_from_unary_function" = type { i8 }
%"struct.std::__1::__function::__maybe_derive_from_binary_function" = type { i8 }
%"class.std::__1::allocator" = type { i8 }
%"struct.std::__1::__non_trivial_if" = type { i8 }
%"class.std::__1::allocator.6" = type { i8 }
%"class.std::__1::__function::__func" = type { %"class.std::__1::__function::__base", %"class.std::__1::__function::__alloc_func" }
%"class.std::__1::__function::__alloc_func" = type { %"class.std::__1::__compressed_pair" }
%"class.std::__1::__compressed_pair" = type { %"struct.std::__1::__compressed_pair_elem" }
%"struct.std::__1::__compressed_pair_elem" = type { %class.anon }
%"struct.std::__1::__non_trivial_if.7" = type { i8 }
%"class.std::__1::unique_ptr" = type { %"class.std::__1::__compressed_pair.16" }
%"class.std::__1::__compressed_pair.16" = type { %"struct.std::__1::__compressed_pair_elem.17", %"struct.std::__1::__compressed_pair_elem.18" }
%"struct.std::__1::__compressed_pair_elem.17" = type { %"class.std::__1::__function::__func"* }
%"struct.std::__1::__compressed_pair_elem.18" = type { %"class.std::__1::__allocator_destructor" }
%"class.std::__1::__allocator_destructor" = type { %"class.std::__1::allocator.6"*, i64 }
%"class.std::type_info" = type { i32 (...)**, i8* }
%"class.std::__1::tuple" = type { %"struct.std::__1::__tuple_impl" }
%"struct.std::__1::__tuple_impl" = type { %"class.std::__1::__tuple_leaf" }
%"class.std::__1::__tuple_leaf" = type { %class.anon* }
%"class.std::__1::tuple.10" = type { %"struct.std::__1::__tuple_impl.11" }
%"struct.std::__1::__tuple_impl.11" = type { %"class.std::__1::__tuple_leaf.12" }
%"class.std::__1::__tuple_leaf.12" = type { %"class.std::__1::allocator"* }
%"struct.std::__1::__tuple_indices" = type { i8 }
%"struct.std::__1::__tuple_types" = type { i8 }
%"struct.std::__1::__tuple_indices.13" = type { i8 }
%"struct.std::__1::__tuple_types.14" = type { i8 }
%"struct.std::__1::__tuple_types.15" = type { i8 }
%"struct.std::__1::__compressed_pair_elem.9" = type { i8 }
%"class.std::bad_array_new_length" = type { %"class.std::bad_alloc" }
%"class.std::bad_alloc" = type { %"class.std::exception" }
%"class.std::__1::tuple.19" = type { %"struct.std::__1::__tuple_impl.20" }
%"struct.std::__1::__tuple_impl.20" = type { %"class.std::__1::__tuple_leaf.21" }
%"class.std::__1::__tuple_leaf.21" = type { %class.anon* }
%"struct.std::__1::__tuple_types.22" = type { i8 }
%"class.std::__1::tuple.23" = type { %"struct.std::__1::__tuple_impl.24" }
%"struct.std::__1::__tuple_impl.24" = type { %"class.std::__1::__tuple_leaf.25" }
%"class.std::__1::__tuple_leaf.25" = type { %"class.std::__1::allocator"* }
%"struct.std::__1::__tuple_types.26" = type { i8 }
%"class.std::__1::allocator.27" = type { i8 }
%"struct.std::__1::__non_trivial_if.28" = type { i8 }
%"class.std::__1::allocator.30" = type { i8 }
%"class.std::__1::__function::__func.33" = type { %"class.std::__1::__function::__base", %"class.std::__1::__function::__alloc_func.34" }
%"class.std::__1::__function::__alloc_func.34" = type { %"class.std::__1::__compressed_pair.35" }
%"class.std::__1::__compressed_pair.35" = type { %"struct.std::__1::__compressed_pair_elem.36" }
%"struct.std::__1::__compressed_pair_elem.36" = type { %class.anon.1 }
%"struct.std::__1::__non_trivial_if.31" = type { i8 }
%"class.std::__1::unique_ptr.46" = type { %"class.std::__1::__compressed_pair.47" }
%"class.std::__1::__compressed_pair.47" = type { %"struct.std::__1::__compressed_pair_elem.48", %"struct.std::__1::__compressed_pair_elem.49" }
%"struct.std::__1::__compressed_pair_elem.48" = type { %"class.std::__1::__function::__func.33"* }
%"struct.std::__1::__compressed_pair_elem.49" = type { %"class.std::__1::__allocator_destructor.50" }
%"class.std::__1::__allocator_destructor.50" = type { %"class.std::__1::allocator.30"*, i64 }
%"class.std::__1::tuple.38" = type { %"struct.std::__1::__tuple_impl.39" }
%"struct.std::__1::__tuple_impl.39" = type { %"class.std::__1::__tuple_leaf.40" }
%"class.std::__1::__tuple_leaf.40" = type { %class.anon.1* }
%"class.std::__1::tuple.41" = type { %"struct.std::__1::__tuple_impl.42" }
%"struct.std::__1::__tuple_impl.42" = type { %"class.std::__1::__tuple_leaf.43" }
%"class.std::__1::__tuple_leaf.43" = type { %"class.std::__1::allocator.27"* }
%"struct.std::__1::__tuple_types.44" = type { i8 }
%"struct.std::__1::__tuple_types.45" = type { i8 }
%"struct.std::__1::__compressed_pair_elem.37" = type { i8 }
%"class.std::__1::tuple.51" = type { %"struct.std::__1::__tuple_impl.52" }
%"struct.std::__1::__tuple_impl.52" = type { %"class.std::__1::__tuple_leaf.53" }
%"class.std::__1::__tuple_leaf.53" = type { %class.anon.1* }
%"struct.std::__1::__tuple_types.54" = type { i8 }
%"class.std::__1::tuple.55" = type { %"struct.std::__1::__tuple_impl.56" }
%"struct.std::__1::__tuple_impl.56" = type { %"class.std::__1::__tuple_leaf.57" }
%"class.std::__1::__tuple_leaf.57" = type { %"class.std::__1::allocator.27"* }
%"struct.std::__1::__tuple_types.58" = type { i8 }
%struct.__loadu_si128 = type { <2 x i64> }
%"class.std::__1::allocator.59" = type { i8 }
%"struct.std::__1::__non_trivial_if.60" = type { i8 }
%"class.std::__1::allocator.62" = type { i8 }
%"class.std::__1::__function::__func.65" = type { %"class.std::__1::__function::__base", %"class.std::__1::__function::__alloc_func.66" }
%"class.std::__1::__function::__alloc_func.66" = type { %"class.std::__1::__compressed_pair.67" }
%"class.std::__1::__compressed_pair.67" = type { %"struct.std::__1::__compressed_pair_elem.68" }
%"struct.std::__1::__compressed_pair_elem.68" = type { %class.anon.2 }
%"struct.std::__1::__non_trivial_if.63" = type { i8 }
%"class.std::__1::unique_ptr.78" = type { %"class.std::__1::__compressed_pair.79" }
%"class.std::__1::__compressed_pair.79" = type { %"struct.std::__1::__compressed_pair_elem.80", %"struct.std::__1::__compressed_pair_elem.81" }
%"struct.std::__1::__compressed_pair_elem.80" = type { %"class.std::__1::__function::__func.65"* }
%"struct.std::__1::__compressed_pair_elem.81" = type { %"class.std::__1::__allocator_destructor.82" }
%"class.std::__1::__allocator_destructor.82" = type { %"class.std::__1::allocator.62"*, i64 }
%"class.std::__1::tuple.70" = type { %"struct.std::__1::__tuple_impl.71" }
%"struct.std::__1::__tuple_impl.71" = type { %"class.std::__1::__tuple_leaf.72" }
%"class.std::__1::__tuple_leaf.72" = type { %class.anon.2* }
%"class.std::__1::tuple.73" = type { %"struct.std::__1::__tuple_impl.74" }
%"struct.std::__1::__tuple_impl.74" = type { %"class.std::__1::__tuple_leaf.75" }
%"class.std::__1::__tuple_leaf.75" = type { %"class.std::__1::allocator.59"* }
%"struct.std::__1::__tuple_types.76" = type { i8 }
%"struct.std::__1::__tuple_types.77" = type { i8 }
%"struct.std::__1::__compressed_pair_elem.69" = type { i8 }
%"class.std::__1::tuple.83" = type { %"struct.std::__1::__tuple_impl.84" }
%"struct.std::__1::__tuple_impl.84" = type { %"class.std::__1::__tuple_leaf.85" }
%"class.std::__1::__tuple_leaf.85" = type { %class.anon.2* }
%"struct.std::__1::__tuple_types.86" = type { i8 }
%"class.std::__1::tuple.87" = type { %"struct.std::__1::__tuple_impl.88" }
%"struct.std::__1::__tuple_impl.88" = type { %"class.std::__1::__tuple_leaf.89" }
%"class.std::__1::__tuple_leaf.89" = type { %"class.std::__1::allocator.59"* }
%"struct.std::__1::__tuple_types.90" = type { i8 }

@t = hidden global double 0.000000e+00, align 8, !dbg !0
@.str = private unnamed_addr constant [8 x i8] c"hvx_128\00", align 1
@.str.1 = private unnamed_addr constant [7 x i8] c"hvx_64\00", align 1
@.str.2 = private unnamed_addr constant [17 x i8] c"times: %f %f %f\0A\00", align 1
@.str.3 = private unnamed_addr constant [33 x i8] c"difference at (%d,%d): %d %d %d\0A\00", align 1
@.str.4 = private unnamed_addr constant [10 x i8] c"Success!\0A\00", align 1
@_ZTVN10__cxxabiv120__si_class_type_infoE = external global i8*
@_ZTSNSt3__117bad_function_callE = linkonce_odr constant [28 x i8] c"NSt3__117bad_function_callE\00", align 1
@_ZTISt9exception = external constant i8*
@_ZTINSt3__117bad_function_callE = linkonce_odr constant { i8*, i8*, i8* } { i8* bitcast (i8** getelementptr inbounds (i8*, i8** @_ZTVN10__cxxabiv120__si_class_type_infoE, i64 2) to i8*), i8* getelementptr inbounds ([28 x i8], [28 x i8]* @_ZTSNSt3__117bad_function_callE, i32 0, i32 0), i8* bitcast (i8** @_ZTISt9exception to i8*) }, align 8
@_ZTVNSt3__117bad_function_callE = linkonce_odr unnamed_addr constant { [5 x i8*] } { [5 x i8*] [i8* null, i8* bitcast ({ i8*, i8*, i8* }* @_ZTINSt3__117bad_function_callE to i8*), i8* bitcast (void (%"class.std::__1::bad_function_call"*)* @_ZNSt3__117bad_function_callD1Ev to i8*), i8* bitcast (void (%"class.std::__1::bad_function_call"*)* @_ZNSt3__117bad_function_callD0Ev to i8*), i8* bitcast (i8* (%"class.std::exception"*)* @_ZNKSt9exception4whatEv to i8*)] }, align 8
@_ZTVSt9exception = available_externally unnamed_addr constant { [5 x i8*] } { [5 x i8*] [i8* null, i8* bitcast (i8** @_ZTISt9exception to i8*), i8* bitcast (void (%"class.std::exception"*)* @_ZNSt9exceptionD1Ev to i8*), i8* bitcast (void (%"class.std::exception"*)* @_ZNSt9exceptionD0Ev to i8*), i8* bitcast (i8* (%"class.std::exception"*)* @_ZNKSt9exception4whatEv to i8*)] }, align 8
@__func__._ZNK6Halide7Runtime6BufferItLi2ELi2EE3dimEi = private unnamed_addr constant [4 x i8] c"dim\00", align 1
@.str.5 = private unnamed_addr constant [15 x i8] c"HalideBuffer.h\00", align 1
@.str.6 = private unnamed_addr constant [33 x i8] c"i >= 0 && i < this->dimensions()\00", align 1
@.str.7 = private unnamed_addr constant [48 x i8] c"Error: Overflow computing total size of buffer.\00", align 1
@__func__._ZN6Halide7Runtime6BufferItLi2ELi2EE14check_overflowEv = private unnamed_addr constant [15 x i8] c"check_overflow\00", align 1
@.str.8 = private unnamed_addr constant [84 x i8] c"size == (size_t)type().bytes() && \22Error: Overflow computing total size of buffer.\22\00", align 1
@.str.9 = private unnamed_addr constant [273 x i8] c"Implicitly freeing a dirty device allocation while a host allocation still lives. Call device_free explicitly if you want to drop dirty device-side data. Call copy_to_host explicitly if you want the data copied to the host allocation before the device allocation is freed.\00", align 1
@__func__._ZN6Halide7Runtime6BufferItLi2ELi2EE6decrefEb = private unnamed_addr constant [7 x i8] c"decref\00", align 1
@.str.10 = private unnamed_addr constant [314 x i8] c"!(alloc && device_dirty()) && \22Implicitly freeing a dirty device allocation while a host allocation still lives. \22 \22Call device_free explicitly if you want to drop dirty device-side data. \22 \22Call copy_to_host explicitly if you want the data copied to the host allocation \22 \22before the device allocation is freed.\22\00", align 1
@.str.11 = private unnamed_addr constant [68 x i8] c"device_interface call returned a nonzero result in Buffer::decref()\00", align 1
@.str.12 = private unnamed_addr constant [111 x i8] c"(result == halide_error_code_success) && \22device_interface call returned a nonzero result in Buffer::decref()\22\00", align 1
@.str.13 = private unnamed_addr constant [111 x i8] c"Cannot set host dirty when device is already dirty. Call copy_to_host() before accessing the buffer from host.\00", align 1
@__func__._ZN6Halide7Runtime6BufferItLi2ELi2EE14set_host_dirtyEb = private unnamed_addr constant [15 x i8] c"set_host_dirty\00", align 1
@.str.14 = private unnamed_addr constant [140 x i8] c"(!v || !device_dirty()) && \22Cannot set host dirty when device is already dirty. Call copy_to_host() before accessing the buffer from host.\22\00", align 1
@"_ZTVNSt3__110__function6__funcIZ4blurN6Halide7Runtime6BufferItLi2ELi2EEEE3$_0NS_9allocatorIS6_EEFvvEEE" = internal unnamed_addr constant { [11 x i8*] } { [11 x i8*] [i8* null, i8* bitcast ({ i8*, i8*, i8* }* @"_ZTINSt3__110__function6__funcIZ4blurN6Halide7Runtime6BufferItLi2ELi2EEEE3$_0NS_9allocatorIS6_EEFvvEEE" to i8*), i8* bitcast (void (%"class.std::__1::__function::__func"*)* @"_ZNSt3__110__function6__funcIZ4blurN6Halide7Runtime6BufferItLi2ELi2EEEE3$_0NS_9allocatorIS6_EEFvvEED1Ev" to i8*), i8* bitcast (void (%"class.std::__1::__function::__func"*)* @"_ZNSt3__110__function6__funcIZ4blurN6Halide7Runtime6BufferItLi2ELi2EEEE3$_0NS_9allocatorIS6_EEFvvEED0Ev" to i8*), i8* bitcast (%"class.std::__1::__function::__base"* (%"class.std::__1::__function::__func"*)* @"_ZNKSt3__110__function6__funcIZ4blurN6Halide7Runtime6BufferItLi2ELi2EEEE3$_0NS_9allocatorIS6_EEFvvEE7__cloneEv" to i8*), i8* bitcast (void (%"class.std::__1::__function::__func"*, %"class.std::__1::__function::__base"*)* @"_ZNKSt3__110__function6__funcIZ4blurN6Halide7Runtime6BufferItLi2ELi2EEEE3$_0NS_9allocatorIS6_EEFvvEE7__cloneEPNS0_6__baseIS9_EE" to i8*), i8* bitcast (void (%"class.std::__1::__function::__func"*)* @"_ZNSt3__110__function6__funcIZ4blurN6Halide7Runtime6BufferItLi2ELi2EEEE3$_0NS_9allocatorIS6_EEFvvEE7destroyEv" to i8*), i8* bitcast (void (%"class.std::__1::__function::__func"*)* @"_ZNSt3__110__function6__funcIZ4blurN6Halide7Runtime6BufferItLi2ELi2EEEE3$_0NS_9allocatorIS6_EEFvvEE18destroy_deallocateEv" to i8*), i8* bitcast (void (%"class.std::__1::__function::__func"*)* @"_ZNSt3__110__function6__funcIZ4blurN6Halide7Runtime6BufferItLi2ELi2EEEE3$_0NS_9allocatorIS6_EEFvvEEclEv" to i8*), i8* bitcast (i8* (%"class.std::__1::__function::__func"*, %"class.std::type_info"*)* @"_ZNKSt3__110__function6__funcIZ4blurN6Halide7Runtime6BufferItLi2ELi2EEEE3$_0NS_9allocatorIS6_EEFvvEE6targetERKSt9type_info" to i8*), i8* bitcast (%"class.std::type_info"* (%"class.std::__1::__function::__func"*)* @"_ZNKSt3__110__function6__funcIZ4blurN6Halide7Runtime6BufferItLi2ELi2EEEE3$_0NS_9allocatorIS6_EEFvvEE11target_typeEv" to i8*)] }, align 8
@"_ZTSNSt3__110__function6__funcIZ4blurN6Halide7Runtime6BufferItLi2ELi2EEEE3$_0NS_9allocatorIS6_EEFvvEEE" = internal constant [99 x i8] c"NSt3__110__function6__funcIZ4blurN6Halide7Runtime6BufferItLi2ELi2EEEE3$_0NS_9allocatorIS6_EEFvvEEE\00", align 1
@_ZTVN10__cxxabiv117__class_type_infoE = external global i8*
@_ZTSNSt3__110__function6__baseIFvvEEE = linkonce_odr constant [34 x i8] c"NSt3__110__function6__baseIFvvEEE\00", align 1
@_ZTINSt3__110__function6__baseIFvvEEE = linkonce_odr constant { i8*, i8* } { i8* bitcast (i8** getelementptr inbounds (i8*, i8** @_ZTVN10__cxxabiv117__class_type_infoE, i64 2) to i8*), i8* getelementptr inbounds ([34 x i8], [34 x i8]* @_ZTSNSt3__110__function6__baseIFvvEEE, i32 0, i32 0) }, align 8
@"_ZTINSt3__110__function6__funcIZ4blurN6Halide7Runtime6BufferItLi2ELi2EEEE3$_0NS_9allocatorIS6_EEFvvEEE" = internal constant { i8*, i8*, i8* } { i8* bitcast (i8** getelementptr inbounds (i8*, i8** @_ZTVN10__cxxabiv120__si_class_type_infoE, i64 2) to i8*), i8* getelementptr inbounds ([99 x i8], [99 x i8]* @"_ZTSNSt3__110__function6__funcIZ4blurN6Halide7Runtime6BufferItLi2ELi2EEEE3$_0NS_9allocatorIS6_EEFvvEEE", i32 0, i32 0), i8* bitcast ({ i8*, i8* }* @_ZTINSt3__110__function6__baseIFvvEEE to i8*) }, align 8
@_ZTVNSt3__110__function6__baseIFvvEEE = linkonce_odr unnamed_addr constant { [11 x i8*] } { [11 x i8*] [i8* null, i8* bitcast ({ i8*, i8* }* @_ZTINSt3__110__function6__baseIFvvEEE to i8*), i8* bitcast (void (%"class.std::__1::__function::__base"*)* @_ZNSt3__110__function6__baseIFvvEED1Ev to i8*), i8* bitcast (void (%"class.std::__1::__function::__base"*)* @_ZNSt3__110__function6__baseIFvvEED0Ev to i8*), i8* bitcast (void ()* @__cxa_pure_virtual to i8*), i8* bitcast (void ()* @__cxa_pure_virtual to i8*), i8* bitcast (void ()* @__cxa_pure_virtual to i8*), i8* bitcast (void ()* @__cxa_pure_virtual to i8*), i8* bitcast (void ()* @__cxa_pure_virtual to i8*), i8* bitcast (void ()* @__cxa_pure_virtual to i8*), i8* bitcast (void ()* @__cxa_pure_virtual to i8*)] }, align 8
@_ZNSt3__1L19piecewise_constructE = internal constant %"struct.std::__1::piecewise_construct_t" undef, align 1, !dbg !4445
@_ZTISt20bad_array_new_length = external constant i8*
@"_ZTSZ4blurN6Halide7Runtime6BufferItLi2ELi2EEEE3$_0" = internal constant [47 x i8] c"Z4blurN6Halide7Runtime6BufferItLi2ELi2EEEE3$_0\00", align 1
@"_ZTIZ4blurN6Halide7Runtime6BufferItLi2ELi2EEEE3$_0" = internal constant { i8*, i8* } { i8* bitcast (i8** getelementptr inbounds (i8*, i8** @_ZTVN10__cxxabiv117__class_type_infoE, i64 2) to i8*), i8* getelementptr inbounds ([47 x i8], [47 x i8]* @"_ZTSZ4blurN6Halide7Runtime6BufferItLi2ELi2EEEE3$_0", i32 0, i32 0) }, align 8
@"_ZTVNSt3__110__function6__funcIZ9blur_fastN6Halide7Runtime6BufferItLi2ELi2EEEE3$_1NS_9allocatorIS6_EEFvvEEE" = internal unnamed_addr constant { [11 x i8*] } { [11 x i8*] [i8* null, i8* bitcast ({ i8*, i8*, i8* }* @"_ZTINSt3__110__function6__funcIZ9blur_fastN6Halide7Runtime6BufferItLi2ELi2EEEE3$_1NS_9allocatorIS6_EEFvvEEE" to i8*), i8* bitcast (void (%"class.std::__1::__function::__func.33"*)* @"_ZNSt3__110__function6__funcIZ9blur_fastN6Halide7Runtime6BufferItLi2ELi2EEEE3$_1NS_9allocatorIS6_EEFvvEED1Ev" to i8*), i8* bitcast (void (%"class.std::__1::__function::__func.33"*)* @"_ZNSt3__110__function6__funcIZ9blur_fastN6Halide7Runtime6BufferItLi2ELi2EEEE3$_1NS_9allocatorIS6_EEFvvEED0Ev" to i8*), i8* bitcast (%"class.std::__1::__function::__base"* (%"class.std::__1::__function::__func.33"*)* @"_ZNKSt3__110__function6__funcIZ9blur_fastN6Halide7Runtime6BufferItLi2ELi2EEEE3$_1NS_9allocatorIS6_EEFvvEE7__cloneEv" to i8*), i8* bitcast (void (%"class.std::__1::__function::__func.33"*, %"class.std::__1::__function::__base"*)* @"_ZNKSt3__110__function6__funcIZ9blur_fastN6Halide7Runtime6BufferItLi2ELi2EEEE3$_1NS_9allocatorIS6_EEFvvEE7__cloneEPNS0_6__baseIS9_EE" to i8*), i8* bitcast (void (%"class.std::__1::__function::__func.33"*)* @"_ZNSt3__110__function6__funcIZ9blur_fastN6Halide7Runtime6BufferItLi2ELi2EEEE3$_1NS_9allocatorIS6_EEFvvEE7destroyEv" to i8*), i8* bitcast (void (%"class.std::__1::__function::__func.33"*)* @"_ZNSt3__110__function6__funcIZ9blur_fastN6Halide7Runtime6BufferItLi2ELi2EEEE3$_1NS_9allocatorIS6_EEFvvEE18destroy_deallocateEv" to i8*), i8* bitcast (void (%"class.std::__1::__function::__func.33"*)* @"_ZNSt3__110__function6__funcIZ9blur_fastN6Halide7Runtime6BufferItLi2ELi2EEEE3$_1NS_9allocatorIS6_EEFvvEEclEv" to i8*), i8* bitcast (i8* (%"class.std::__1::__function::__func.33"*, %"class.std::type_info"*)* @"_ZNKSt3__110__function6__funcIZ9blur_fastN6Halide7Runtime6BufferItLi2ELi2EEEE3$_1NS_9allocatorIS6_EEFvvEE6targetERKSt9type_info" to i8*), i8* bitcast (%"class.std::type_info"* (%"class.std::__1::__function::__func.33"*)* @"_ZNKSt3__110__function6__funcIZ9blur_fastN6Halide7Runtime6BufferItLi2ELi2EEEE3$_1NS_9allocatorIS6_EEFvvEE11target_typeEv" to i8*)] }, align 8
@"_ZTSNSt3__110__function6__funcIZ9blur_fastN6Halide7Runtime6BufferItLi2ELi2EEEE3$_1NS_9allocatorIS6_EEFvvEEE" = internal constant [104 x i8] c"NSt3__110__function6__funcIZ9blur_fastN6Halide7Runtime6BufferItLi2ELi2EEEE3$_1NS_9allocatorIS6_EEFvvEEE\00", align 1
@"_ZTINSt3__110__function6__funcIZ9blur_fastN6Halide7Runtime6BufferItLi2ELi2EEEE3$_1NS_9allocatorIS6_EEFvvEEE" = internal constant { i8*, i8*, i8* } { i8* bitcast (i8** getelementptr inbounds (i8*, i8** @_ZTVN10__cxxabiv120__si_class_type_infoE, i64 2) to i8*), i8* getelementptr inbounds ([104 x i8], [104 x i8]* @"_ZTSNSt3__110__function6__funcIZ9blur_fastN6Halide7Runtime6BufferItLi2ELi2EEEE3$_1NS_9allocatorIS6_EEFvvEEE", i32 0, i32 0), i8* bitcast ({ i8*, i8* }* @_ZTINSt3__110__function6__baseIFvvEEE to i8*) }, align 8
@"_ZTSZ9blur_fastN6Halide7Runtime6BufferItLi2ELi2EEEE3$_1" = internal constant [52 x i8] c"Z9blur_fastN6Halide7Runtime6BufferItLi2ELi2EEEE3$_1\00", align 1
@"_ZTIZ9blur_fastN6Halide7Runtime6BufferItLi2ELi2EEEE3$_1" = internal constant { i8*, i8* } { i8* bitcast (i8** getelementptr inbounds (i8*, i8** @_ZTVN10__cxxabiv117__class_type_infoE, i64 2) to i8*), i8* getelementptr inbounds ([52 x i8], [52 x i8]* @"_ZTSZ9blur_fastN6Halide7Runtime6BufferItLi2ELi2EEEE3$_1", i32 0, i32 0) }, align 8
@"_ZTVNSt3__110__function6__funcIZ11blur_halideN6Halide7Runtime6BufferItLi2ELi2EEEE3$_2NS_9allocatorIS6_EEFvvEEE" = internal unnamed_addr constant { [11 x i8*] } { [11 x i8*] [i8* null, i8* bitcast ({ i8*, i8*, i8* }* @"_ZTINSt3__110__function6__funcIZ11blur_halideN6Halide7Runtime6BufferItLi2ELi2EEEE3$_2NS_9allocatorIS6_EEFvvEEE" to i8*), i8* bitcast (void (%"class.std::__1::__function::__func.65"*)* @"_ZNSt3__110__function6__funcIZ11blur_halideN6Halide7Runtime6BufferItLi2ELi2EEEE3$_2NS_9allocatorIS6_EEFvvEED1Ev" to i8*), i8* bitcast (void (%"class.std::__1::__function::__func.65"*)* @"_ZNSt3__110__function6__funcIZ11blur_halideN6Halide7Runtime6BufferItLi2ELi2EEEE3$_2NS_9allocatorIS6_EEFvvEED0Ev" to i8*), i8* bitcast (%"class.std::__1::__function::__base"* (%"class.std::__1::__function::__func.65"*)* @"_ZNKSt3__110__function6__funcIZ11blur_halideN6Halide7Runtime6BufferItLi2ELi2EEEE3$_2NS_9allocatorIS6_EEFvvEE7__cloneEv" to i8*), i8* bitcast (void (%"class.std::__1::__function::__func.65"*, %"class.std::__1::__function::__base"*)* @"_ZNKSt3__110__function6__funcIZ11blur_halideN6Halide7Runtime6BufferItLi2ELi2EEEE3$_2NS_9allocatorIS6_EEFvvEE7__cloneEPNS0_6__baseIS9_EE" to i8*), i8* bitcast (void (%"class.std::__1::__function::__func.65"*)* @"_ZNSt3__110__function6__funcIZ11blur_halideN6Halide7Runtime6BufferItLi2ELi2EEEE3$_2NS_9allocatorIS6_EEFvvEE7destroyEv" to i8*), i8* bitcast (void (%"class.std::__1::__function::__func.65"*)* @"_ZNSt3__110__function6__funcIZ11blur_halideN6Halide7Runtime6BufferItLi2ELi2EEEE3$_2NS_9allocatorIS6_EEFvvEE18destroy_deallocateEv" to i8*), i8* bitcast (void (%"class.std::__1::__function::__func.65"*)* @"_ZNSt3__110__function6__funcIZ11blur_halideN6Halide7Runtime6BufferItLi2ELi2EEEE3$_2NS_9allocatorIS6_EEFvvEEclEv" to i8*), i8* bitcast (i8* (%"class.std::__1::__function::__func.65"*, %"class.std::type_info"*)* @"_ZNKSt3__110__function6__funcIZ11blur_halideN6Halide7Runtime6BufferItLi2ELi2EEEE3$_2NS_9allocatorIS6_EEFvvEE6targetERKSt9type_info" to i8*), i8* bitcast (%"class.std::type_info"* (%"class.std::__1::__function::__func.65"*)* @"_ZNKSt3__110__function6__funcIZ11blur_halideN6Halide7Runtime6BufferItLi2ELi2EEEE3$_2NS_9allocatorIS6_EEFvvEE11target_typeEv" to i8*)] }, align 8
@"_ZTSNSt3__110__function6__funcIZ11blur_halideN6Halide7Runtime6BufferItLi2ELi2EEEE3$_2NS_9allocatorIS6_EEFvvEEE" = internal constant [107 x i8] c"NSt3__110__function6__funcIZ11blur_halideN6Halide7Runtime6BufferItLi2ELi2EEEE3$_2NS_9allocatorIS6_EEFvvEEE\00", align 1
@"_ZTINSt3__110__function6__funcIZ11blur_halideN6Halide7Runtime6BufferItLi2ELi2EEEE3$_2NS_9allocatorIS6_EEFvvEEE" = internal constant { i8*, i8*, i8* } { i8* bitcast (i8** getelementptr inbounds (i8*, i8** @_ZTVN10__cxxabiv120__si_class_type_infoE, i64 2) to i8*), i8* getelementptr inbounds ([107 x i8], [107 x i8]* @"_ZTSNSt3__110__function6__funcIZ11blur_halideN6Halide7Runtime6BufferItLi2ELi2EEEE3$_2NS_9allocatorIS6_EEFvvEEE", i32 0, i32 0), i8* bitcast ({ i8*, i8* }* @_ZTINSt3__110__function6__baseIFvvEEE to i8*) }, align 8
@"_ZTSZ11blur_halideN6Halide7Runtime6BufferItLi2ELi2EEEE3$_2" = internal constant [55 x i8] c"Z11blur_halideN6Halide7Runtime6BufferItLi2ELi2EEEE3$_2\00", align 1
@"_ZTIZ11blur_halideN6Halide7Runtime6BufferItLi2ELi2EEEE3$_2" = internal constant { i8*, i8* } { i8* bitcast (i8** getelementptr inbounds (i8*, i8** @_ZTVN10__cxxabiv117__class_type_infoE, i64 2) to i8*), i8* getelementptr inbounds ([55 x i8], [55 x i8]* @"_ZTSZ11blur_halideN6Halide7Runtime6BufferItLi2ELi2EEEE3$_2", i32 0, i32 0) }, align 8
@__func__._ZN6Halide7Runtime6BufferItLi2ELi2EE18make_shape_storageEi = private unnamed_addr constant [19 x i8] c"make_shape_storage\00", align 1
@.str.15 = private unnamed_addr constant [80 x i8] c"false && \22Number of arguments to Buffer() does not match static dimensionality\22\00", align 1

; Function Attrs: mustprogress ssp uwtable
define hidden void @_Z4blurN6Halide7Runtime6BufferItLi2ELi2EEE(%"class.Halide::Runtime::Buffer"* noalias sret(%"class.Halide::Runtime::Buffer") align 8 %0, %"class.Halide::Runtime::Buffer"* noundef %1) #0 personality i8* bitcast (i32 (...)* @__gxx_personality_v0 to i8*) !dbg !2711 {
  %3 = alloca i8*, align 8
  %4 = alloca %"class.Halide::Runtime::Buffer", align 8
  %5 = alloca i1, align 1
  %6 = alloca i8*, align 8
  %7 = alloca i32, align 4
  %8 = alloca %"class.std::__1::function", align 16
  %9 = alloca %class.anon, align 8
  %10 = bitcast %"class.Halide::Runtime::Buffer"* %0 to i8*
  store i8* %10, i8** %3, align 8
  call void @llvm.dbg.declare(metadata %"class.Halide::Runtime::Buffer"* %1, metadata !2715, metadata !DIExpression()), !dbg !5688
  %11 = bitcast %"class.Halide::Runtime::Buffer"* %4 to i8*, !dbg !5689
  call void @llvm.lifetime.start.p0i8(i64 104, i8* %11) #32, !dbg !5689
  call void @llvm.dbg.declare(metadata %"class.Halide::Runtime::Buffer"* %4, metadata !2716, metadata !DIExpression()), !dbg !5690
  %12 = call noundef i32 @_ZNK6Halide7Runtime6BufferItLi2ELi2EE5widthEv(%"class.Halide::Runtime::Buffer"* noundef nonnull align 8 dereferenceable(104) %1), !dbg !5691
  %13 = sub nsw i32 %12, 8, !dbg !5692
  %14 = call noundef i32 @_ZNK6Halide7Runtime6BufferItLi2ELi2EE6heightEv(%"class.Halide::Runtime::Buffer"* noundef nonnull align 8 dereferenceable(104) %1), !dbg !5693
  call void @_ZN6Halide7Runtime6BufferItLi2ELi2EEC1IJEvEEiiDpT_(%"class.Halide::Runtime::Buffer"* noundef nonnull align 8 dereferenceable(104) %4, i32 noundef %13, i32 noundef %14), !dbg !5690
  store i1 false, i1* %5, align 1, !dbg !5694
  call void @llvm.dbg.declare(metadata i8** %3, metadata !2717, metadata !DIExpression(DW_OP_deref)), !dbg !5695
  %15 = invoke noundef i32 @_ZNK6Halide7Runtime6BufferItLi2ELi2EE5widthEv(%"class.Halide::Runtime::Buffer"* noundef nonnull align 8 dereferenceable(104) %1)
          to label %16 unwind label %31, !dbg !5696

16:                                               ; preds = %2
  %17 = sub nsw i32 %15, 8, !dbg !5697
  %18 = invoke noundef i32 @_ZNK6Halide7Runtime6BufferItLi2ELi2EE6heightEv(%"class.Halide::Runtime::Buffer"* noundef nonnull align 8 dereferenceable(104) %1)
          to label %19 unwind label %31, !dbg !5698

19:                                               ; preds = %16
  %20 = sub nsw i32 %18, 2, !dbg !5699
  invoke void @_ZN6Halide7Runtime6BufferItLi2ELi2EEC1IJEvEEiiDpT_(%"class.Halide::Runtime::Buffer"* noundef nonnull align 8 dereferenceable(104) %0, i32 noundef %17, i32 noundef %20)
          to label %21 unwind label %31, !dbg !5695

21:                                               ; preds = %19
  %22 = bitcast %"class.std::__1::function"* %8 to i8*, !dbg !5700
  call void @llvm.lifetime.start.p0i8(i64 48, i8* %22) #32, !dbg !5700
  %23 = getelementptr inbounds %class.anon, %class.anon* %9, i32 0, i32 0, !dbg !5700
  store %"class.Halide::Runtime::Buffer"* %4, %"class.Halide::Runtime::Buffer"** %23, align 8, !dbg !5700, !tbaa !5701
  %24 = getelementptr inbounds %class.anon, %class.anon* %9, i32 0, i32 1, !dbg !5700
  store %"class.Halide::Runtime::Buffer"* %1, %"class.Halide::Runtime::Buffer"** %24, align 8, !dbg !5700, !tbaa !5701
  %25 = getelementptr inbounds %class.anon, %class.anon* %9, i32 0, i32 2, !dbg !5700
  store %"class.Halide::Runtime::Buffer"* %0, %"class.Halide::Runtime::Buffer"** %25, align 8, !dbg !5700, !tbaa !5701
  invoke void @"_ZNSt3__18functionIFvvEEC1IZ4blurN6Halide7Runtime6BufferItLi2ELi2EEEE3$_0vEET_"(%"class.std::__1::function"* noundef nonnull align 16 dereferenceable(48) %8, %class.anon* noundef byval(%class.anon) align 8 %9)
          to label %26 unwind label %35, !dbg !5700

26:                                               ; preds = %21
  %27 = invoke noundef double @_ZN6Halide5Tools9benchmarkEyyRKNSt3__18functionIFvvEEE(i64 noundef 10, i64 noundef 1, %"class.std::__1::function"* noundef nonnull align 16 dereferenceable(48) %8)
          to label %28 unwind label %39, !dbg !5705

28:                                               ; preds = %26
  store double %27, double* @t, align 8, !dbg !5706, !tbaa !5707
  call void @_ZNSt3__18functionIFvvEED1Ev(%"class.std::__1::function"* noundef nonnull align 16 dereferenceable(48) %8) #32, !dbg !5709
  %29 = bitcast %"class.std::__1::function"* %8 to i8*, !dbg !5709
  call void @llvm.lifetime.end.p0i8(i64 48, i8* %29) #32, !dbg !5709
  store i1 true, i1* %5, align 1, !dbg !5710
  %30 = load i1, i1* %5, align 1, !dbg !5711
  br i1 %30, label %46, label %45, !dbg !5711

31:                                               ; preds = %19, %16, %2
  %32 = landingpad { i8*, i32 }
          cleanup, !dbg !5711
  %33 = extractvalue { i8*, i32 } %32, 0, !dbg !5711
  store i8* %33, i8** %6, align 8, !dbg !5711
  %34 = extractvalue { i8*, i32 } %32, 1, !dbg !5711
  store i32 %34, i32* %7, align 4, !dbg !5711
  br label %48, !dbg !5711

35:                                               ; preds = %21
  %36 = landingpad { i8*, i32 }
          cleanup, !dbg !5711
  %37 = extractvalue { i8*, i32 } %36, 0, !dbg !5711
  store i8* %37, i8** %6, align 8, !dbg !5711
  %38 = extractvalue { i8*, i32 } %36, 1, !dbg !5711
  store i32 %38, i32* %7, align 4, !dbg !5711
  br label %43, !dbg !5711

39:                                               ; preds = %26
  %40 = landingpad { i8*, i32 }
          cleanup, !dbg !5711
  %41 = extractvalue { i8*, i32 } %40, 0, !dbg !5711
  store i8* %41, i8** %6, align 8, !dbg !5711
  %42 = extractvalue { i8*, i32 } %40, 1, !dbg !5711
  store i32 %42, i32* %7, align 4, !dbg !5711
  call void @_ZNSt3__18functionIFvvEED1Ev(%"class.std::__1::function"* noundef nonnull align 16 dereferenceable(48) %8) #32, !dbg !5709
  br label %43, !dbg !5709

43:                                               ; preds = %39, %35
  %44 = bitcast %"class.std::__1::function"* %8 to i8*, !dbg !5709
  call void @llvm.lifetime.end.p0i8(i64 48, i8* %44) #32, !dbg !5709
  call void @_ZN6Halide7Runtime6BufferItLi2ELi2EED1Ev(%"class.Halide::Runtime::Buffer"* noundef nonnull align 8 dereferenceable(104) %0) #32, !dbg !5711
  br label %48, !dbg !5711

45:                                               ; preds = %28
  call void @_ZN6Halide7Runtime6BufferItLi2ELi2EED1Ev(%"class.Halide::Runtime::Buffer"* noundef nonnull align 8 dereferenceable(104) %0) #32, !dbg !5711
  br label %46, !dbg !5711

46:                                               ; preds = %45, %28
  call void @_ZN6Halide7Runtime6BufferItLi2ELi2EED1Ev(%"class.Halide::Runtime::Buffer"* noundef nonnull align 8 dereferenceable(104) %4) #32, !dbg !5711
  %47 = bitcast %"class.Halide::Runtime::Buffer"* %4 to i8*, !dbg !5711
  call void @llvm.lifetime.end.p0i8(i64 104, i8* %47) #32, !dbg !5711
  ret void, !dbg !5711

48:                                               ; preds = %43, %31
  call void @_ZN6Halide7Runtime6BufferItLi2ELi2EED1Ev(%"class.Halide::Runtime::Buffer"* noundef nonnull align 8 dereferenceable(104) %4) #32, !dbg !5711
  %49 = bitcast %"class.Halide::Runtime::Buffer"* %4 to i8*, !dbg !5711
  call void @llvm.lifetime.end.p0i8(i64 104, i8* %49) #32, !dbg !5711
  br label %50, !dbg !5711

50:                                               ; preds = %48
  %51 = load i8*, i8** %6, align 8, !dbg !5711
  %52 = load i32, i32* %7, align 4, !dbg !5711
  %53 = insertvalue { i8*, i32 } undef, i8* %51, 0, !dbg !5711
  %54 = insertvalue { i8*, i32 } %53, i32 %52, 1, !dbg !5711
  resume { i8*, i32 } %54, !dbg !5711
}

; Function Attrs: nofree nosync nounwind readnone speculatable willreturn
declare void @llvm.dbg.declare(metadata, metadata, metadata) #1

; Function Attrs: argmemonly nofree nosync nounwind willreturn
declare void @llvm.lifetime.start.p0i8(i64 immarg, i8* nocapture) #2

; Function Attrs: mustprogress ssp uwtable
define linkonce_odr hidden noundef i32 @_ZNK6Halide7Runtime6BufferItLi2ELi2EE5widthEv(%"class.Halide::Runtime::Buffer"* noundef nonnull align 8 dereferenceable(104) %0) #0 align 2 !dbg !5712 {
  %2 = alloca %"class.Halide::Runtime::Buffer"*, align 8
  %3 = alloca %"class.Halide::Runtime::Buffer<unsigned short, 2, 2>::Dimension", align 8
  store %"class.Halide::Runtime::Buffer"* %0, %"class.Halide::Runtime::Buffer"** %2, align 8, !tbaa !5701
  call void @llvm.dbg.declare(metadata %"class.Halide::Runtime::Buffer"** %2, metadata !5714, metadata !DIExpression()), !dbg !5716
  %4 = load %"class.Halide::Runtime::Buffer"*, %"class.Halide::Runtime::Buffer"** %2, align 8
  %5 = call noundef i32 @_ZNK6Halide7Runtime6BufferItLi2ELi2EE10dimensionsEv(%"class.Halide::Runtime::Buffer"* noundef nonnull align 8 dereferenceable(104) %4), !dbg !5717
  %6 = icmp sgt i32 %5, 0, !dbg !5718
  %7 = bitcast %"class.Halide::Runtime::Buffer<unsigned short, 2, 2>::Dimension"* %3 to i8*, !dbg !5719
  call void @llvm.lifetime.start.p0i8(i64 8, i8* %7) #32, !dbg !5719
  br i1 %6, label %8, label %12, !dbg !5719

8:                                                ; preds = %1
  %9 = call %struct.halide_dimension_t* @_ZNK6Halide7Runtime6BufferItLi2ELi2EE3dimEi(%"class.Halide::Runtime::Buffer"* noundef nonnull align 8 dereferenceable(104) %4, i32 noundef 0), !dbg !5720
  %10 = getelementptr inbounds %"class.Halide::Runtime::Buffer<unsigned short, 2, 2>::Dimension", %"class.Halide::Runtime::Buffer<unsigned short, 2, 2>::Dimension"* %3, i32 0, i32 0, !dbg !5720
  store %struct.halide_dimension_t* %9, %struct.halide_dimension_t** %10, align 8, !dbg !5720
  %11 = call noundef i32 @_ZNK6Halide7Runtime6BufferItLi2ELi2EE9Dimension6extentEv(%"class.Halide::Runtime::Buffer<unsigned short, 2, 2>::Dimension"* noundef nonnull align 8 dereferenceable(8) %3), !dbg !5721
  br label %13, !dbg !5719

12:                                               ; preds = %1
  br label %13, !dbg !5719

13:                                               ; preds = %12, %8
  %14 = phi i32 [ %11, %8 ], [ 1, %12 ], !dbg !5719
  %15 = bitcast %"class.Halide::Runtime::Buffer<unsigned short, 2, 2>::Dimension"* %3 to i8*, !dbg !5722
  call void @llvm.lifetime.end.p0i8(i64 8, i8* %15) #32, !dbg !5722
  ret i32 %14, !dbg !5722
}

; Function Attrs: mustprogress ssp uwtable
define linkonce_odr hidden noundef i32 @_ZNK6Halide7Runtime6BufferItLi2ELi2EE6heightEv(%"class.Halide::Runtime::Buffer"* noundef nonnull align 8 dereferenceable(104) %0) #0 align 2 !dbg !5723 {
  %2 = alloca %"class.Halide::Runtime::Buffer"*, align 8
  %3 = alloca %"class.Halide::Runtime::Buffer<unsigned short, 2, 2>::Dimension", align 8
  store %"class.Halide::Runtime::Buffer"* %0, %"class.Halide::Runtime::Buffer"** %2, align 8, !tbaa !5701
  call void @llvm.dbg.declare(metadata %"class.Halide::Runtime::Buffer"** %2, metadata !5725, metadata !DIExpression()), !dbg !5726
  %4 = load %"class.Halide::Runtime::Buffer"*, %"class.Halide::Runtime::Buffer"** %2, align 8
  %5 = call noundef i32 @_ZNK6Halide7Runtime6BufferItLi2ELi2EE10dimensionsEv(%"class.Halide::Runtime::Buffer"* noundef nonnull align 8 dereferenceable(104) %4), !dbg !5727
  %6 = icmp sgt i32 %5, 1, !dbg !5728
  %7 = bitcast %"class.Halide::Runtime::Buffer<unsigned short, 2, 2>::Dimension"* %3 to i8*, !dbg !5729
  call void @llvm.lifetime.start.p0i8(i64 8, i8* %7) #32, !dbg !5729
  br i1 %6, label %8, label %12, !dbg !5729

8:                                                ; preds = %1
  %9 = call %struct.halide_dimension_t* @_ZNK6Halide7Runtime6BufferItLi2ELi2EE3dimEi(%"class.Halide::Runtime::Buffer"* noundef nonnull align 8 dereferenceable(104) %4, i32 noundef 1), !dbg !5730
  %10 = getelementptr inbounds %"class.Halide::Runtime::Buffer<unsigned short, 2, 2>::Dimension", %"class.Halide::Runtime::Buffer<unsigned short, 2, 2>::Dimension"* %3, i32 0, i32 0, !dbg !5730
  store %struct.halide_dimension_t* %9, %struct.halide_dimension_t** %10, align 8, !dbg !5730
  %11 = call noundef i32 @_ZNK6Halide7Runtime6BufferItLi2ELi2EE9Dimension6extentEv(%"class.Halide::Runtime::Buffer<unsigned short, 2, 2>::Dimension"* noundef nonnull align 8 dereferenceable(8) %3), !dbg !5731
  br label %13, !dbg !5729

12:                                               ; preds = %1
  br label %13, !dbg !5729

13:                                               ; preds = %12, %8
  %14 = phi i32 [ %11, %8 ], [ 1, %12 ], !dbg !5729
  %15 = bitcast %"class.Halide::Runtime::Buffer<unsigned short, 2, 2>::Dimension"* %3 to i8*, !dbg !5732
  call void @llvm.lifetime.end.p0i8(i64 8, i8* %15) #32, !dbg !5732
  ret i32 %14, !dbg !5732
}

; Function Attrs: ssp uwtable
define linkonce_odr hidden void @_ZN6Halide7Runtime6BufferItLi2ELi2EEC1IJEvEEiiDpT_(%"class.Halide::Runtime::Buffer"* noundef nonnull align 8 dereferenceable(104) %0, i32 noundef %1, i32 noundef %2) unnamed_addr #3 align 2 !dbg !5733 {
  %4 = alloca %"class.Halide::Runtime::Buffer"*, align 8
  %5 = alloca i32, align 4
  %6 = alloca i32, align 4
  store %"class.Halide::Runtime::Buffer"* %0, %"class.Halide::Runtime::Buffer"** %4, align 8, !tbaa !5701
  call void @llvm.dbg.declare(metadata %"class.Halide::Runtime::Buffer"** %4, metadata !5739, metadata !DIExpression()), !dbg !5743
  store i32 %1, i32* %5, align 4, !tbaa !5744
  call void @llvm.dbg.declare(metadata i32* %5, metadata !5741, metadata !DIExpression()), !dbg !5746
  store i32 %2, i32* %6, align 4, !tbaa !5744
  call void @llvm.dbg.declare(metadata i32* %6, metadata !5742, metadata !DIExpression()), !dbg !5747
  %7 = load %"class.Halide::Runtime::Buffer"*, %"class.Halide::Runtime::Buffer"** %4, align 8
  %8 = load i32, i32* %5, align 4, !dbg !5748, !tbaa !5744
  %9 = load i32, i32* %6, align 4, !dbg !5748, !tbaa !5744
  call void @_ZN6Halide7Runtime6BufferItLi2ELi2EEC2IJEvEEiiDpT_(%"class.Halide::Runtime::Buffer"* noundef nonnull align 8 dereferenceable(104) %7, i32 noundef %8, i32 noundef %9), !dbg !5748
  ret void, !dbg !5749
}

declare i32 @__gxx_personality_v0(...)

; Function Attrs: inlinehint mustprogress ssp uwtable
define linkonce_odr hidden noundef double @_ZN6Halide5Tools9benchmarkEyyRKNSt3__18functionIFvvEEE(i64 noundef %0, i64 noundef %1, %"class.std::__1::function"* noundef nonnull align 16 dereferenceable(48) %2) #4 !dbg !5750 {
  %4 = alloca i64, align 8
  %5 = alloca i64, align 8
  %6 = alloca %"class.std::__1::function"*, align 8
  %7 = alloca double, align 8
  %8 = alloca i64, align 8
  %9 = alloca i32, align 4
  %10 = alloca %"class.std::__1::chrono::time_point", align 8
  %11 = alloca i64, align 8
  %12 = alloca %"class.std::__1::chrono::time_point", align 8
  %13 = alloca double, align 8
  %14 = alloca %"class.std::__1::chrono::time_point", align 8
  %15 = alloca %"class.std::__1::chrono::time_point", align 8
  store i64 %0, i64* %4, align 8, !tbaa !5910
  call void @llvm.dbg.declare(metadata i64* %4, metadata !5858, metadata !DIExpression()), !dbg !5912
  store i64 %1, i64* %5, align 8, !tbaa !5910
  call void @llvm.dbg.declare(metadata i64* %5, metadata !5859, metadata !DIExpression()), !dbg !5913
  store %"class.std::__1::function"* %2, %"class.std::__1::function"** %6, align 8, !tbaa !5701
  call void @llvm.dbg.declare(metadata %"class.std::__1::function"** %6, metadata !5860, metadata !DIExpression()), !dbg !5914
  %16 = bitcast double* %7 to i8*, !dbg !5915
  call void @llvm.lifetime.start.p0i8(i64 8, i8* %16) #32, !dbg !5915
  call void @llvm.dbg.declare(metadata double* %7, metadata !5861, metadata !DIExpression()), !dbg !5916
  %17 = call noundef double @_ZNSt3__114numeric_limitsIdE8infinityEv() #32, !dbg !5917
  store double %17, double* %7, align 8, !dbg !5916, !tbaa !5707
  %18 = bitcast i64* %8 to i8*, !dbg !5918
  call void @llvm.lifetime.start.p0i8(i64 8, i8* %18) #32, !dbg !5918
  call void @llvm.dbg.declare(metadata i64* %8, metadata !5862, metadata !DIExpression()), !dbg !5919
  store i64 0, i64* %8, align 8, !dbg !5919, !tbaa !5910
  br label %19, !dbg !5918

19:                                               ; preds = %64, %3
  %20 = load i64, i64* %8, align 8, !dbg !5920, !tbaa !5910
  %21 = load i64, i64* %4, align 8, !dbg !5921, !tbaa !5910
  %22 = icmp ult i64 %20, %21, !dbg !5922
  br i1 %22, label %25, label %23, !dbg !5923

23:                                               ; preds = %19
  store i32 2, i32* %9, align 4
  %24 = bitcast i64* %8 to i8*, !dbg !5924
  call void @llvm.lifetime.end.p0i8(i64 8, i8* %24) #32, !dbg !5924
  br label %67

25:                                               ; preds = %19
  %26 = bitcast %"class.std::__1::chrono::time_point"* %10 to i8*, !dbg !5925
  call void @llvm.lifetime.start.p0i8(i64 8, i8* %26) #32, !dbg !5925
  call void @llvm.dbg.declare(metadata %"class.std::__1::chrono::time_point"* %10, metadata !5864, metadata !DIExpression()), !dbg !5926
  %27 = call i64 @_ZN6Halide5Tools13benchmark_nowEv(), !dbg !5927
  %28 = getelementptr inbounds %"class.std::__1::chrono::time_point", %"class.std::__1::chrono::time_point"* %10, i32 0, i32 0, !dbg !5927
  %29 = getelementptr inbounds %"class.std::__1::chrono::duration", %"class.std::__1::chrono::duration"* %28, i32 0, i32 0, !dbg !5927
  store i64 %27, i64* %29, align 8, !dbg !5927
  %30 = bitcast i64* %11 to i8*, !dbg !5928
  call void @llvm.lifetime.start.p0i8(i64 8, i8* %30) #32, !dbg !5928
  call void @llvm.dbg.declare(metadata i64* %11, metadata !5906, metadata !DIExpression()), !dbg !5929
  store i64 0, i64* %11, align 8, !dbg !5929, !tbaa !5910
  br label %31, !dbg !5928

31:                                               ; preds = %39, %25
  %32 = load i64, i64* %11, align 8, !dbg !5930, !tbaa !5910
  %33 = load i64, i64* %5, align 8, !dbg !5932, !tbaa !5910
  %34 = icmp ult i64 %32, %33, !dbg !5933
  br i1 %34, label %37, label %35, !dbg !5934

35:                                               ; preds = %31
  store i32 5, i32* %9, align 4
  %36 = bitcast i64* %11 to i8*, !dbg !5935
  call void @llvm.lifetime.end.p0i8(i64 8, i8* %36) #32, !dbg !5935
  br label %42

37:                                               ; preds = %31
  %38 = load %"class.std::__1::function"*, %"class.std::__1::function"** %6, align 8, !dbg !5936, !tbaa !5701
  call void @_ZNKSt3__18functionIFvvEEclEv(%"class.std::__1::function"* noundef nonnull align 16 dereferenceable(48) %38), !dbg !5936
  br label %39, !dbg !5938

39:                                               ; preds = %37
  %40 = load i64, i64* %11, align 8, !dbg !5939, !tbaa !5910
  %41 = add i64 %40, 1, !dbg !5939
  store i64 %41, i64* %11, align 8, !dbg !5939, !tbaa !5910
  br label %31, !dbg !5935, !llvm.loop !5940

42:                                               ; preds = %35
  %43 = bitcast %"class.std::__1::chrono::time_point"* %12 to i8*, !dbg !5943
  call void @llvm.lifetime.start.p0i8(i64 8, i8* %43) #32, !dbg !5943
  call void @llvm.dbg.declare(metadata %"class.std::__1::chrono::time_point"* %12, metadata !5908, metadata !DIExpression()), !dbg !5944
  %44 = call i64 @_ZN6Halide5Tools13benchmark_nowEv(), !dbg !5945
  %45 = getelementptr inbounds %"class.std::__1::chrono::time_point", %"class.std::__1::chrono::time_point"* %12, i32 0, i32 0, !dbg !5945
  %46 = getelementptr inbounds %"class.std::__1::chrono::duration", %"class.std::__1::chrono::duration"* %45, i32 0, i32 0, !dbg !5945
  store i64 %44, i64* %46, align 8, !dbg !5945
  %47 = bitcast double* %13 to i8*, !dbg !5946
  call void @llvm.lifetime.start.p0i8(i64 8, i8* %47) #32, !dbg !5946
  call void @llvm.dbg.declare(metadata double* %13, metadata !5909, metadata !DIExpression()), !dbg !5947
  %48 = bitcast %"class.std::__1::chrono::time_point"* %14 to i8*, !dbg !5948
  %49 = bitcast %"class.std::__1::chrono::time_point"* %10 to i8*, !dbg !5948
  call void @llvm.memcpy.p0i8.p0i8.i64(i8* align 8 %48, i8* align 8 %49, i64 8, i1 false), !dbg !5948, !tbaa.struct !5949
  %50 = bitcast %"class.std::__1::chrono::time_point"* %15 to i8*, !dbg !5950
  %51 = bitcast %"class.std::__1::chrono::time_point"* %12 to i8*, !dbg !5950
  call void @llvm.memcpy.p0i8.p0i8.i64(i8* align 8 %50, i8* align 8 %51, i64 8, i1 false), !dbg !5950, !tbaa.struct !5949
  %52 = getelementptr inbounds %"class.std::__1::chrono::time_point", %"class.std::__1::chrono::time_point"* %14, i32 0, i32 0, !dbg !5951
  %53 = getelementptr inbounds %"class.std::__1::chrono::duration", %"class.std::__1::chrono::duration"* %52, i32 0, i32 0, !dbg !5951
  %54 = load i64, i64* %53, align 8, !dbg !5951
  %55 = getelementptr inbounds %"class.std::__1::chrono::time_point", %"class.std::__1::chrono::time_point"* %15, i32 0, i32 0, !dbg !5951
  %56 = getelementptr inbounds %"class.std::__1::chrono::duration", %"class.std::__1::chrono::duration"* %55, i32 0, i32 0, !dbg !5951
  %57 = load i64, i64* %56, align 8, !dbg !5951
  %58 = call noundef double @_ZN6Halide5Tools26benchmark_duration_secondsENSt3__16chrono10time_pointINS2_12steady_clockENS2_8durationIxNS1_5ratioILl1ELl1000000000EEEEEEES9_(i64 %54, i64 %57), !dbg !5951
  store double %58, double* %13, align 8, !dbg !5947, !tbaa !5707
  %59 = call noundef nonnull align 8 dereferenceable(8) double* @_ZNSt3__13minIdEERKT_S3_S3_(double* noundef nonnull align 8 dereferenceable(8) %7, double* noundef nonnull align 8 dereferenceable(8) %13), !dbg !5952
  %60 = load double, double* %59, align 8, !dbg !5952, !tbaa !5707
  store double %60, double* %7, align 8, !dbg !5953, !tbaa !5707
  %61 = bitcast double* %13 to i8*, !dbg !5954
  call void @llvm.lifetime.end.p0i8(i64 8, i8* %61) #32, !dbg !5954
  %62 = bitcast %"class.std::__1::chrono::time_point"* %12 to i8*, !dbg !5954
  call void @llvm.lifetime.end.p0i8(i64 8, i8* %62) #32, !dbg !5954
  %63 = bitcast %"class.std::__1::chrono::time_point"* %10 to i8*, !dbg !5954
  call void @llvm.lifetime.end.p0i8(i64 8, i8* %63) #32, !dbg !5954
  br label %64, !dbg !5955

64:                                               ; preds = %42
  %65 = load i64, i64* %8, align 8, !dbg !5956, !tbaa !5910
  %66 = add i64 %65, 1, !dbg !5956
  store i64 %66, i64* %8, align 8, !dbg !5956, !tbaa !5910
  br label %19, !dbg !5924, !llvm.loop !5957

67:                                               ; preds = %23
  %68 = load double, double* %7, align 8, !dbg !5959, !tbaa !5707
  %69 = load i64, i64* %5, align 8, !dbg !5960, !tbaa !5910
  %70 = uitofp i64 %69 to double, !dbg !5960
  %71 = fdiv double %68, %70, !dbg !5961
  store i32 1, i32* %9, align 4
  %72 = bitcast double* %7 to i8*, !dbg !5962
  call void @llvm.lifetime.end.p0i8(i64 8, i8* %72) #32, !dbg !5962
  ret double %71, !dbg !5963
}

; Function Attrs: ssp uwtable
define internal void @"_ZNSt3__18functionIFvvEEC1IZ4blurN6Halide7Runtime6BufferItLi2ELi2EEEE3$_0vEET_"(%"class.std::__1::function"* noundef nonnull align 16 dereferenceable(48) %0, %class.anon* noundef byval(%class.anon) align 8 %1) unnamed_addr #3 align 2 !dbg !5964 {
  %3 = alloca %"class.std::__1::function"*, align 8
  store %"class.std::__1::function"* %0, %"class.std::__1::function"** %3, align 8, !tbaa !5701
  call void @llvm.dbg.declare(metadata %"class.std::__1::function"** %3, metadata !5970, metadata !DIExpression()), !dbg !5973
  call void @llvm.dbg.declare(metadata %class.anon* %1, metadata !5972, metadata !DIExpression()), !dbg !5974
  %4 = load %"class.std::__1::function"*, %"class.std::__1::function"** %3, align 8
  call void @"_ZNSt3__18functionIFvvEEC2IZ4blurN6Halide7Runtime6BufferItLi2ELi2EEEE3$_0vEET_"(%"class.std::__1::function"* noundef nonnull align 16 dereferenceable(48) %4, %class.anon* noundef byval(%class.anon) align 8 %1), !dbg !5975
  ret void, !dbg !5976
}

; Function Attrs: nounwind ssp uwtable
define linkonce_odr hidden void @_ZNSt3__18functionIFvvEED1Ev(%"class.std::__1::function"* noundef nonnull align 16 dereferenceable(48) %0) unnamed_addr #5 align 2 !dbg !5977 {
  %2 = alloca %"class.std::__1::function"*, align 8
  store %"class.std::__1::function"* %0, %"class.std::__1::function"** %2, align 8, !tbaa !5701
  call void @llvm.dbg.declare(metadata %"class.std::__1::function"** %2, metadata !5979, metadata !DIExpression()), !dbg !5980
  %3 = load %"class.std::__1::function"*, %"class.std::__1::function"** %2, align 8
  call void @_ZNSt3__18functionIFvvEED2Ev(%"class.std::__1::function"* noundef nonnull align 16 dereferenceable(48) %3) #32, !dbg !5981
  ret void, !dbg !5982
}

; Function Attrs: argmemonly nofree nosync nounwind willreturn
declare void @llvm.lifetime.end.p0i8(i64 immarg, i8* nocapture) #2

; Function Attrs: nounwind ssp uwtable
define linkonce_odr hidden void @_ZN6Halide7Runtime6BufferItLi2ELi2EED1Ev(%"class.Halide::Runtime::Buffer"* noundef nonnull align 8 dereferenceable(104) %0) unnamed_addr #5 align 2 !dbg !5983 {
  %2 = alloca %"class.Halide::Runtime::Buffer"*, align 8
  store %"class.Halide::Runtime::Buffer"* %0, %"class.Halide::Runtime::Buffer"** %2, align 8, !tbaa !5701
  call void @llvm.dbg.declare(metadata %"class.Halide::Runtime::Buffer"** %2, metadata !5985, metadata !DIExpression()), !dbg !5986
  %3 = load %"class.Halide::Runtime::Buffer"*, %"class.Halide::Runtime::Buffer"** %2, align 8
  call void @_ZN6Halide7Runtime6BufferItLi2ELi2EED2Ev(%"class.Halide::Runtime::Buffer"* noundef nonnull align 8 dereferenceable(104) %3) #32, !dbg !5987
  ret void, !dbg !5988
}

; Function Attrs: mustprogress ssp uwtable
define hidden void @_Z9blur_fastN6Halide7Runtime6BufferItLi2ELi2EEE(%"class.Halide::Runtime::Buffer"* noalias sret(%"class.Halide::Runtime::Buffer") align 8 %0, %"class.Halide::Runtime::Buffer"* noundef %1) #0 personality i8* bitcast (i32 (...)* @__gxx_personality_v0 to i8*) !dbg !3357 {
  %3 = alloca i8*, align 8
  %4 = alloca i1, align 1
  %5 = alloca %"class.std::__1::function", align 16
  %6 = alloca %class.anon.1, align 8
  %7 = alloca i8*, align 8
  %8 = alloca i32, align 4
  %9 = bitcast %"class.Halide::Runtime::Buffer"* %0 to i8*
  store i8* %9, i8** %3, align 8
  call void @llvm.dbg.declare(metadata %"class.Halide::Runtime::Buffer"* %1, metadata !3359, metadata !DIExpression()), !dbg !5989
  store i1 false, i1* %4, align 1, !dbg !5990
  call void @llvm.dbg.declare(metadata i8** %3, metadata !3360, metadata !DIExpression(DW_OP_deref)), !dbg !5991
  %10 = call noundef i32 @_ZNK6Halide7Runtime6BufferItLi2ELi2EE5widthEv(%"class.Halide::Runtime::Buffer"* noundef nonnull align 8 dereferenceable(104) %1), !dbg !5992
  %11 = sub nsw i32 %10, 8, !dbg !5993
  %12 = call noundef i32 @_ZNK6Halide7Runtime6BufferItLi2ELi2EE6heightEv(%"class.Halide::Runtime::Buffer"* noundef nonnull align 8 dereferenceable(104) %1), !dbg !5994
  %13 = sub nsw i32 %12, 2, !dbg !5995
  call void @_ZN6Halide7Runtime6BufferItLi2ELi2EEC1IJEvEEiiDpT_(%"class.Halide::Runtime::Buffer"* noundef nonnull align 8 dereferenceable(104) %0, i32 noundef %11, i32 noundef %13), !dbg !5991
  %14 = bitcast %"class.std::__1::function"* %5 to i8*, !dbg !5996
  call void @llvm.lifetime.start.p0i8(i64 48, i8* %14) #32, !dbg !5996
  %15 = getelementptr inbounds %class.anon.1, %class.anon.1* %6, i32 0, i32 0, !dbg !5996
  store %"class.Halide::Runtime::Buffer"* %0, %"class.Halide::Runtime::Buffer"** %15, align 8, !dbg !5996, !tbaa !5701
  %16 = getelementptr inbounds %class.anon.1, %class.anon.1* %6, i32 0, i32 1, !dbg !5996
  store %"class.Halide::Runtime::Buffer"* %1, %"class.Halide::Runtime::Buffer"** %16, align 8, !dbg !5996, !tbaa !5701
  %17 = bitcast %class.anon.1* %6 to { %"class.Halide::Runtime::Buffer"*, %"class.Halide::Runtime::Buffer"* }*, !dbg !5996
  %18 = getelementptr inbounds { %"class.Halide::Runtime::Buffer"*, %"class.Halide::Runtime::Buffer"* }, { %"class.Halide::Runtime::Buffer"*, %"class.Halide::Runtime::Buffer"* }* %17, i32 0, i32 0, !dbg !5996
  %19 = load %"class.Halide::Runtime::Buffer"*, %"class.Halide::Runtime::Buffer"** %18, align 8, !dbg !5996
  %20 = getelementptr inbounds { %"class.Halide::Runtime::Buffer"*, %"class.Halide::Runtime::Buffer"* }, { %"class.Halide::Runtime::Buffer"*, %"class.Halide::Runtime::Buffer"* }* %17, i32 0, i32 1, !dbg !5996
  %21 = load %"class.Halide::Runtime::Buffer"*, %"class.Halide::Runtime::Buffer"** %20, align 8, !dbg !5996
  invoke void @"_ZNSt3__18functionIFvvEEC1IZ9blur_fastN6Halide7Runtime6BufferItLi2ELi2EEEE3$_1vEET_"(%"class.std::__1::function"* noundef nonnull align 16 dereferenceable(48) %5, %"class.Halide::Runtime::Buffer"* %19, %"class.Halide::Runtime::Buffer"* %21)
          to label %22 unwind label %27, !dbg !5996

22:                                               ; preds = %2
  %23 = invoke noundef double @_ZN6Halide5Tools9benchmarkEyyRKNSt3__18functionIFvvEEE(i64 noundef 10, i64 noundef 1, %"class.std::__1::function"* noundef nonnull align 16 dereferenceable(48) %5)
          to label %24 unwind label %31, !dbg !5997

24:                                               ; preds = %22
  store double %23, double* @t, align 8, !dbg !5998, !tbaa !5707
  call void @_ZNSt3__18functionIFvvEED1Ev(%"class.std::__1::function"* noundef nonnull align 16 dereferenceable(48) %5) #32, !dbg !5999
  %25 = bitcast %"class.std::__1::function"* %5 to i8*, !dbg !5999
  call void @llvm.lifetime.end.p0i8(i64 48, i8* %25) #32, !dbg !5999
  store i1 true, i1* %4, align 1, !dbg !6000
  %26 = load i1, i1* %4, align 1, !dbg !6001
  br i1 %26, label %38, label %37, !dbg !6001

27:                                               ; preds = %2
  %28 = landingpad { i8*, i32 }
          cleanup, !dbg !6001
  %29 = extractvalue { i8*, i32 } %28, 0, !dbg !6001
  store i8* %29, i8** %7, align 8, !dbg !6001
  %30 = extractvalue { i8*, i32 } %28, 1, !dbg !6001
  store i32 %30, i32* %8, align 4, !dbg !6001
  br label %35, !dbg !6001

31:                                               ; preds = %22
  %32 = landingpad { i8*, i32 }
          cleanup, !dbg !6001
  %33 = extractvalue { i8*, i32 } %32, 0, !dbg !6001
  store i8* %33, i8** %7, align 8, !dbg !6001
  %34 = extractvalue { i8*, i32 } %32, 1, !dbg !6001
  store i32 %34, i32* %8, align 4, !dbg !6001
  call void @_ZNSt3__18functionIFvvEED1Ev(%"class.std::__1::function"* noundef nonnull align 16 dereferenceable(48) %5) #32, !dbg !5999
  br label %35, !dbg !5999

35:                                               ; preds = %31, %27
  %36 = bitcast %"class.std::__1::function"* %5 to i8*, !dbg !5999
  call void @llvm.lifetime.end.p0i8(i64 48, i8* %36) #32, !dbg !5999
  call void @_ZN6Halide7Runtime6BufferItLi2ELi2EED1Ev(%"class.Halide::Runtime::Buffer"* noundef nonnull align 8 dereferenceable(104) %0) #32, !dbg !6001
  br label %39, !dbg !6001

37:                                               ; preds = %24
  call void @_ZN6Halide7Runtime6BufferItLi2ELi2EED1Ev(%"class.Halide::Runtime::Buffer"* noundef nonnull align 8 dereferenceable(104) %0) #32, !dbg !6001
  br label %38, !dbg !6001

38:                                               ; preds = %37, %24
  ret void, !dbg !6001

39:                                               ; preds = %35
  %40 = load i8*, i8** %7, align 8, !dbg !6001
  %41 = load i32, i32* %8, align 4, !dbg !6001
  %42 = insertvalue { i8*, i32 } undef, i8* %40, 0, !dbg !6001
  %43 = insertvalue { i8*, i32 } %42, i32 %41, 1, !dbg !6001
  resume { i8*, i32 } %43, !dbg !6001
}

; Function Attrs: ssp uwtable
define internal void @"_ZNSt3__18functionIFvvEEC1IZ9blur_fastN6Halide7Runtime6BufferItLi2ELi2EEEE3$_1vEET_"(%"class.std::__1::function"* noundef nonnull align 16 dereferenceable(48) %0, %"class.Halide::Runtime::Buffer"* %1, %"class.Halide::Runtime::Buffer"* %2) unnamed_addr #3 align 2 !dbg !6002 {
  %4 = alloca %class.anon.1, align 8
  %5 = alloca %"class.std::__1::function"*, align 8
  %6 = bitcast %class.anon.1* %4 to { %"class.Halide::Runtime::Buffer"*, %"class.Halide::Runtime::Buffer"* }*
  %7 = getelementptr inbounds { %"class.Halide::Runtime::Buffer"*, %"class.Halide::Runtime::Buffer"* }, { %"class.Halide::Runtime::Buffer"*, %"class.Halide::Runtime::Buffer"* }* %6, i32 0, i32 0
  store %"class.Halide::Runtime::Buffer"* %1, %"class.Halide::Runtime::Buffer"** %7, align 8
  %8 = getelementptr inbounds { %"class.Halide::Runtime::Buffer"*, %"class.Halide::Runtime::Buffer"* }, { %"class.Halide::Runtime::Buffer"*, %"class.Halide::Runtime::Buffer"* }* %6, i32 0, i32 1
  store %"class.Halide::Runtime::Buffer"* %2, %"class.Halide::Runtime::Buffer"** %8, align 8
  store %"class.std::__1::function"* %0, %"class.std::__1::function"** %5, align 8, !tbaa !5701
  call void @llvm.dbg.declare(metadata %"class.std::__1::function"** %5, metadata !6008, metadata !DIExpression()), !dbg !6010
  call void @llvm.dbg.declare(metadata %class.anon.1* %4, metadata !6009, metadata !DIExpression()), !dbg !6011
  %9 = load %"class.std::__1::function"*, %"class.std::__1::function"** %5, align 8
  %10 = bitcast %class.anon.1* %4 to { %"class.Halide::Runtime::Buffer"*, %"class.Halide::Runtime::Buffer"* }*, !dbg !6012
  %11 = getelementptr inbounds { %"class.Halide::Runtime::Buffer"*, %"class.Halide::Runtime::Buffer"* }, { %"class.Halide::Runtime::Buffer"*, %"class.Halide::Runtime::Buffer"* }* %10, i32 0, i32 0, !dbg !6012
  %12 = load %"class.Halide::Runtime::Buffer"*, %"class.Halide::Runtime::Buffer"** %11, align 8, !dbg !6012
  %13 = getelementptr inbounds { %"class.Halide::Runtime::Buffer"*, %"class.Halide::Runtime::Buffer"* }, { %"class.Halide::Runtime::Buffer"*, %"class.Halide::Runtime::Buffer"* }* %10, i32 0, i32 1, !dbg !6012
  %14 = load %"class.Halide::Runtime::Buffer"*, %"class.Halide::Runtime::Buffer"** %13, align 8, !dbg !6012
  call void @"_ZNSt3__18functionIFvvEEC2IZ9blur_fastN6Halide7Runtime6BufferItLi2ELi2EEEE3$_1vEET_"(%"class.std::__1::function"* noundef nonnull align 16 dereferenceable(48) %9, %"class.Halide::Runtime::Buffer"* %12, %"class.Halide::Runtime::Buffer"* %14), !dbg !6012
  ret void, !dbg !6013
}

; Function Attrs: mustprogress ssp uwtable
define hidden void @_Z11blur_halideN6Halide7Runtime6BufferItLi2ELi2EEE(%"class.Halide::Runtime::Buffer"* noalias sret(%"class.Halide::Runtime::Buffer") align 8 %0, %"class.Halide::Runtime::Buffer"* noundef %1) #0 personality i8* bitcast (i32 (...)* @__gxx_personality_v0 to i8*) !dbg !3920 {
  %3 = alloca i8*, align 8
  %4 = alloca i1, align 1
  %5 = alloca i8*, align 8
  %6 = alloca i32, align 4
  %7 = alloca %"class.std::__1::function", align 16
  %8 = alloca %class.anon.2, align 8
  %9 = bitcast %"class.Halide::Runtime::Buffer"* %0 to i8*
  store i8* %9, i8** %3, align 8
  call void @llvm.dbg.declare(metadata %"class.Halide::Runtime::Buffer"* %1, metadata !3922, metadata !DIExpression()), !dbg !6014
  store i1 false, i1* %4, align 1, !dbg !6015
  call void @llvm.dbg.declare(metadata i8** %3, metadata !3923, metadata !DIExpression(DW_OP_deref)), !dbg !6016
  %10 = call noundef i32 @_ZNK6Halide7Runtime6BufferItLi2ELi2EE5widthEv(%"class.Halide::Runtime::Buffer"* noundef nonnull align 8 dereferenceable(104) %1), !dbg !6017
  %11 = sub nsw i32 %10, 8, !dbg !6018
  %12 = call noundef i32 @_ZNK6Halide7Runtime6BufferItLi2ELi2EE6heightEv(%"class.Halide::Runtime::Buffer"* noundef nonnull align 8 dereferenceable(104) %1), !dbg !6019
  %13 = sub nsw i32 %12, 2, !dbg !6020
  call void @_ZN6Halide7Runtime6BufferItLi2ELi2EEC1IJEvEEiiDpT_(%"class.Halide::Runtime::Buffer"* noundef nonnull align 8 dereferenceable(104) %0, i32 noundef %11, i32 noundef %13), !dbg !6016
  %14 = invoke noundef %struct.halide_buffer_t* @_ZN6Halide7Runtime6BufferItLi2ELi2EEcvP15halide_buffer_tEv(%"class.Halide::Runtime::Buffer"* noundef nonnull align 8 dereferenceable(104) %1)
          to label %15 unwind label %37, !dbg !6021

15:                                               ; preds = %2
  %16 = invoke noundef %struct.halide_buffer_t* @_ZN6Halide7Runtime6BufferItLi2ELi2EEcvP15halide_buffer_tEv(%"class.Halide::Runtime::Buffer"* noundef nonnull align 8 dereferenceable(104) %0)
          to label %17 unwind label %37, !dbg !6022

17:                                               ; preds = %15
  %18 = invoke i32 @halide_blur(%struct.halide_buffer_t* noundef %14, %struct.halide_buffer_t* noundef %16)
          to label %19 unwind label %37, !dbg !6023

19:                                               ; preds = %17
  %20 = invoke noundef i32 @_ZN6Halide7Runtime6BufferItLi2ELi2EE12copy_to_hostEPv(%"class.Halide::Runtime::Buffer"* noundef nonnull align 8 dereferenceable(104) %0, i8* noundef null)
          to label %21 unwind label %37, !dbg !6024

21:                                               ; preds = %19
  %22 = bitcast %"class.std::__1::function"* %7 to i8*, !dbg !6025
  call void @llvm.lifetime.start.p0i8(i64 48, i8* %22) #32, !dbg !6025
  %23 = getelementptr inbounds %class.anon.2, %class.anon.2* %8, i32 0, i32 0, !dbg !6025
  store %"class.Halide::Runtime::Buffer"* %1, %"class.Halide::Runtime::Buffer"** %23, align 8, !dbg !6025, !tbaa !5701
  %24 = getelementptr inbounds %class.anon.2, %class.anon.2* %8, i32 0, i32 1, !dbg !6025
  store %"class.Halide::Runtime::Buffer"* %0, %"class.Halide::Runtime::Buffer"** %24, align 8, !dbg !6025, !tbaa !5701
  %25 = bitcast %class.anon.2* %8 to { %"class.Halide::Runtime::Buffer"*, %"class.Halide::Runtime::Buffer"* }*, !dbg !6025
  %26 = getelementptr inbounds { %"class.Halide::Runtime::Buffer"*, %"class.Halide::Runtime::Buffer"* }, { %"class.Halide::Runtime::Buffer"*, %"class.Halide::Runtime::Buffer"* }* %25, i32 0, i32 0, !dbg !6025
  %27 = load %"class.Halide::Runtime::Buffer"*, %"class.Halide::Runtime::Buffer"** %26, align 8, !dbg !6025
  %28 = getelementptr inbounds { %"class.Halide::Runtime::Buffer"*, %"class.Halide::Runtime::Buffer"* }, { %"class.Halide::Runtime::Buffer"*, %"class.Halide::Runtime::Buffer"* }* %25, i32 0, i32 1, !dbg !6025
  %29 = load %"class.Halide::Runtime::Buffer"*, %"class.Halide::Runtime::Buffer"** %28, align 8, !dbg !6025
  invoke void @"_ZNSt3__18functionIFvvEEC1IZ11blur_halideN6Halide7Runtime6BufferItLi2ELi2EEEE3$_2vEET_"(%"class.std::__1::function"* noundef nonnull align 16 dereferenceable(48) %7, %"class.Halide::Runtime::Buffer"* %27, %"class.Halide::Runtime::Buffer"* %29)
          to label %30 unwind label %41, !dbg !6025

30:                                               ; preds = %21
  %31 = invoke noundef double @_ZN6Halide5Tools9benchmarkEyyRKNSt3__18functionIFvvEEE(i64 noundef 10, i64 noundef 1, %"class.std::__1::function"* noundef nonnull align 16 dereferenceable(48) %7)
          to label %32 unwind label %45, !dbg !6026

32:                                               ; preds = %30
  store double %31, double* @t, align 8, !dbg !6027, !tbaa !5707
  call void @_ZNSt3__18functionIFvvEED1Ev(%"class.std::__1::function"* noundef nonnull align 16 dereferenceable(48) %7) #32, !dbg !6028
  %33 = bitcast %"class.std::__1::function"* %7 to i8*, !dbg !6028
  call void @llvm.lifetime.end.p0i8(i64 48, i8* %33) #32, !dbg !6028
  %34 = invoke noundef i32 @_ZN6Halide7Runtime6BufferItLi2ELi2EE12copy_to_hostEPv(%"class.Halide::Runtime::Buffer"* noundef nonnull align 8 dereferenceable(104) %0, i8* noundef null)
          to label %35 unwind label %37, !dbg !6029

35:                                               ; preds = %32
  store i1 true, i1* %4, align 1, !dbg !6030
  %36 = load i1, i1* %4, align 1, !dbg !6031
  br i1 %36, label %52, label %51, !dbg !6031

37:                                               ; preds = %32, %19, %17, %15, %2
  %38 = landingpad { i8*, i32 }
          cleanup, !dbg !6031
  %39 = extractvalue { i8*, i32 } %38, 0, !dbg !6031
  store i8* %39, i8** %5, align 8, !dbg !6031
  %40 = extractvalue { i8*, i32 } %38, 1, !dbg !6031
  store i32 %40, i32* %6, align 4, !dbg !6031
  br label %53, !dbg !6031

41:                                               ; preds = %21
  %42 = landingpad { i8*, i32 }
          cleanup, !dbg !6031
  %43 = extractvalue { i8*, i32 } %42, 0, !dbg !6031
  store i8* %43, i8** %5, align 8, !dbg !6031
  %44 = extractvalue { i8*, i32 } %42, 1, !dbg !6031
  store i32 %44, i32* %6, align 4, !dbg !6031
  br label %49, !dbg !6031

45:                                               ; preds = %30
  %46 = landingpad { i8*, i32 }
          cleanup, !dbg !6031
  %47 = extractvalue { i8*, i32 } %46, 0, !dbg !6031
  store i8* %47, i8** %5, align 8, !dbg !6031
  %48 = extractvalue { i8*, i32 } %46, 1, !dbg !6031
  store i32 %48, i32* %6, align 4, !dbg !6031
  call void @_ZNSt3__18functionIFvvEED1Ev(%"class.std::__1::function"* noundef nonnull align 16 dereferenceable(48) %7) #32, !dbg !6028
  br label %49, !dbg !6028

49:                                               ; preds = %45, %41
  %50 = bitcast %"class.std::__1::function"* %7 to i8*, !dbg !6028
  call void @llvm.lifetime.end.p0i8(i64 48, i8* %50) #32, !dbg !6028
  br label %53, !dbg !6028

51:                                               ; preds = %35
  call void @_ZN6Halide7Runtime6BufferItLi2ELi2EED1Ev(%"class.Halide::Runtime::Buffer"* noundef nonnull align 8 dereferenceable(104) %0) #32, !dbg !6031
  br label %52, !dbg !6031

52:                                               ; preds = %51, %35
  ret void, !dbg !6031

53:                                               ; preds = %49, %37
  call void @_ZN6Halide7Runtime6BufferItLi2ELi2EED1Ev(%"class.Halide::Runtime::Buffer"* noundef nonnull align 8 dereferenceable(104) %0) #32, !dbg !6031
  br label %54, !dbg !6031

54:                                               ; preds = %53
  %55 = load i8*, i8** %5, align 8, !dbg !6031
  %56 = load i32, i32* %6, align 4, !dbg !6031
  %57 = insertvalue { i8*, i32 } undef, i8* %55, 0, !dbg !6031
  %58 = insertvalue { i8*, i32 } %57, i32 %56, 1, !dbg !6031
  resume { i8*, i32 } %58, !dbg !6031
}

declare !dbg !6032 i32 @halide_blur(%struct.halide_buffer_t* noundef, %struct.halide_buffer_t* noundef) #6

; Function Attrs: mustprogress nounwind ssp uwtable
define linkonce_odr hidden noundef %struct.halide_buffer_t* @_ZN6Halide7Runtime6BufferItLi2ELi2EEcvP15halide_buffer_tEv(%"class.Halide::Runtime::Buffer"* noundef nonnull align 8 dereferenceable(104) %0) #7 align 2 !dbg !6036 {
  %2 = alloca %"class.Halide::Runtime::Buffer"*, align 8
  store %"class.Halide::Runtime::Buffer"* %0, %"class.Halide::Runtime::Buffer"** %2, align 8, !tbaa !5701
  call void @llvm.dbg.declare(metadata %"class.Halide::Runtime::Buffer"** %2, metadata !6038, metadata !DIExpression()), !dbg !6039
  %3 = load %"class.Halide::Runtime::Buffer"*, %"class.Halide::Runtime::Buffer"** %2, align 8
  %4 = getelementptr inbounds %"class.Halide::Runtime::Buffer", %"class.Halide::Runtime::Buffer"* %3, i32 0, i32 0, !dbg !6040
  ret %struct.halide_buffer_t* %4, !dbg !6041
}

; Function Attrs: mustprogress ssp uwtable
define linkonce_odr hidden noundef i32 @_ZN6Halide7Runtime6BufferItLi2ELi2EE12copy_to_hostEPv(%"class.Halide::Runtime::Buffer"* noundef nonnull align 8 dereferenceable(104) %0, i8* noundef %1) #0 align 2 !dbg !6042 {
  %3 = alloca i32, align 4
  %4 = alloca %"class.Halide::Runtime::Buffer"*, align 8
  %5 = alloca i8*, align 8
  store %"class.Halide::Runtime::Buffer"* %0, %"class.Halide::Runtime::Buffer"** %4, align 8, !tbaa !5701
  call void @llvm.dbg.declare(metadata %"class.Halide::Runtime::Buffer"** %4, metadata !6044, metadata !DIExpression()), !dbg !6046
  store i8* %1, i8** %5, align 8, !tbaa !5701
  call void @llvm.dbg.declare(metadata i8** %5, metadata !6045, metadata !DIExpression()), !dbg !6047
  %6 = load %"class.Halide::Runtime::Buffer"*, %"class.Halide::Runtime::Buffer"** %4, align 8
  %7 = call noundef zeroext i1 @_ZNK6Halide7Runtime6BufferItLi2ELi2EE12device_dirtyEv(%"class.Halide::Runtime::Buffer"* noundef nonnull align 8 dereferenceable(104) %6), !dbg !6048
  br i1 %7, label %8, label %17, !dbg !6050

8:                                                ; preds = %2
  %9 = getelementptr inbounds %"class.Halide::Runtime::Buffer", %"class.Halide::Runtime::Buffer"* %6, i32 0, i32 0, !dbg !6051
  %10 = getelementptr inbounds %struct.halide_buffer_t, %struct.halide_buffer_t* %9, i32 0, i32 1, !dbg !6053
  %11 = load %struct.halide_device_interface_t*, %struct.halide_device_interface_t** %10, align 8, !dbg !6053, !tbaa !6054
  %12 = getelementptr inbounds %struct.halide_device_interface_t, %struct.halide_device_interface_t* %11, i32 0, i32 4, !dbg !6060
  %13 = load i32 (i8*, %struct.halide_buffer_t*)*, i32 (i8*, %struct.halide_buffer_t*)** %12, align 8, !dbg !6060, !tbaa !6061
  %14 = load i8*, i8** %5, align 8, !dbg !6063, !tbaa !5701
  %15 = getelementptr inbounds %"class.Halide::Runtime::Buffer", %"class.Halide::Runtime::Buffer"* %6, i32 0, i32 0, !dbg !6064
  %16 = call noundef i32 %13(i8* noundef %14, %struct.halide_buffer_t* noundef %15), !dbg !6051
  store i32 %16, i32* %3, align 4, !dbg !6065
  br label %18, !dbg !6065

17:                                               ; preds = %2
  store i32 0, i32* %3, align 4, !dbg !6066
  br label %18, !dbg !6066

18:                                               ; preds = %17, %8
  %19 = load i32, i32* %3, align 4, !dbg !6067
  ret i32 %19, !dbg !6067
}

; Function Attrs: ssp uwtable
define internal void @"_ZNSt3__18functionIFvvEEC1IZ11blur_halideN6Halide7Runtime6BufferItLi2ELi2EEEE3$_2vEET_"(%"class.std::__1::function"* noundef nonnull align 16 dereferenceable(48) %0, %"class.Halide::Runtime::Buffer"* %1, %"class.Halide::Runtime::Buffer"* %2) unnamed_addr #3 align 2 !dbg !6068 {
  %4 = alloca %class.anon.2, align 8
  %5 = alloca %"class.std::__1::function"*, align 8
  %6 = bitcast %class.anon.2* %4 to { %"class.Halide::Runtime::Buffer"*, %"class.Halide::Runtime::Buffer"* }*
  %7 = getelementptr inbounds { %"class.Halide::Runtime::Buffer"*, %"class.Halide::Runtime::Buffer"* }, { %"class.Halide::Runtime::Buffer"*, %"class.Halide::Runtime::Buffer"* }* %6, i32 0, i32 0
  store %"class.Halide::Runtime::Buffer"* %1, %"class.Halide::Runtime::Buffer"** %7, align 8
  %8 = getelementptr inbounds { %"class.Halide::Runtime::Buffer"*, %"class.Halide::Runtime::Buffer"* }, { %"class.Halide::Runtime::Buffer"*, %"class.Halide::Runtime::Buffer"* }* %6, i32 0, i32 1
  store %"class.Halide::Runtime::Buffer"* %2, %"class.Halide::Runtime::Buffer"** %8, align 8
  store %"class.std::__1::function"* %0, %"class.std::__1::function"** %5, align 8, !tbaa !5701
  call void @llvm.dbg.declare(metadata %"class.std::__1::function"** %5, metadata !6074, metadata !DIExpression()), !dbg !6076
  call void @llvm.dbg.declare(metadata %class.anon.2* %4, metadata !6075, metadata !DIExpression()), !dbg !6077
  %9 = load %"class.std::__1::function"*, %"class.std::__1::function"** %5, align 8
  %10 = bitcast %class.anon.2* %4 to { %"class.Halide::Runtime::Buffer"*, %"class.Halide::Runtime::Buffer"* }*, !dbg !6078
  %11 = getelementptr inbounds { %"class.Halide::Runtime::Buffer"*, %"class.Halide::Runtime::Buffer"* }, { %"class.Halide::Runtime::Buffer"*, %"class.Halide::Runtime::Buffer"* }* %10, i32 0, i32 0, !dbg !6078
  %12 = load %"class.Halide::Runtime::Buffer"*, %"class.Halide::Runtime::Buffer"** %11, align 8, !dbg !6078
  %13 = getelementptr inbounds { %"class.Halide::Runtime::Buffer"*, %"class.Halide::Runtime::Buffer"* }, { %"class.Halide::Runtime::Buffer"*, %"class.Halide::Runtime::Buffer"* }* %10, i32 0, i32 1, !dbg !6078
  %14 = load %"class.Halide::Runtime::Buffer"*, %"class.Halide::Runtime::Buffer"** %13, align 8, !dbg !6078
  call void @"_ZNSt3__18functionIFvvEEC2IZ11blur_halideN6Halide7Runtime6BufferItLi2ELi2EEEE3$_2vEET_"(%"class.std::__1::function"* noundef nonnull align 16 dereferenceable(48) %9, %"class.Halide::Runtime::Buffer"* %12, %"class.Halide::Runtime::Buffer"* %14), !dbg !6078
  ret void, !dbg !6079
}

; Function Attrs: mustprogress norecurse ssp uwtable
define hidden noundef i32 @main(i32 noundef %0, i8** noundef %1) #8 personality i8* bitcast (i32 (...)* @__gxx_personality_v0 to i8*) !dbg !6080 {
  %3 = alloca i32, align 4
  %4 = alloca i32, align 4
  %5 = alloca i8**, align 8
  %6 = alloca %struct.halide_filter_metadata_t*, align 8
  %7 = alloca i8, align 1
  %8 = alloca i32, align 4
  %9 = alloca i32, align 4
  %10 = alloca %"class.Halide::Runtime::Buffer", align 8
  %11 = alloca i32, align 4
  %12 = alloca i8*, align 8
  %13 = alloca i32, align 4
  %14 = alloca i32, align 4
  %15 = alloca i32, align 4
  %16 = alloca %"class.Halide::Runtime::Buffer", align 8
  %17 = alloca %"class.Halide::Runtime::Buffer", align 8
  %18 = alloca double, align 8
  %19 = alloca %"class.Halide::Runtime::Buffer", align 8
  %20 = alloca %"class.Halide::Runtime::Buffer", align 8
  %21 = alloca double, align 8
  %22 = alloca %"class.Halide::Runtime::Buffer", align 8
  %23 = alloca %"class.Halide::Runtime::Buffer", align 8
  %24 = alloca double, align 8
  %25 = alloca i32, align 4
  %26 = alloca i32, align 4
  store i32 0, i32* %3, align 4
  store i32 %0, i32* %4, align 4, !tbaa !5744
  call void @llvm.dbg.declare(metadata i32* %4, metadata !6084, metadata !DIExpression()), !dbg !6160
  store i8** %1, i8*** %5, align 8, !tbaa !5701
  call void @llvm.dbg.declare(metadata i8*** %5, metadata !6085, metadata !DIExpression()), !dbg !6161
  %27 = bitcast %struct.halide_filter_metadata_t** %6 to i8*, !dbg !6162
  call void @llvm.lifetime.start.p0i8(i64 8, i8* %27) #32, !dbg !6162
  call void @llvm.dbg.declare(metadata %struct.halide_filter_metadata_t** %6, metadata !6086, metadata !DIExpression()), !dbg !6163
  %28 = call %struct.halide_filter_metadata_t* @halide_blur_metadata(), !dbg !6164
  store %struct.halide_filter_metadata_t* %28, %struct.halide_filter_metadata_t** %6, align 8, !dbg !6163, !tbaa !5701
  call void @llvm.lifetime.start.p0i8(i64 1, i8* %7) #32, !dbg !6165
  call void @llvm.dbg.declare(metadata i8* %7, metadata !6138, metadata !DIExpression()), !dbg !6166
  %29 = load %struct.halide_filter_metadata_t*, %struct.halide_filter_metadata_t** %6, align 8, !dbg !6167, !tbaa !5701
  %30 = getelementptr inbounds %struct.halide_filter_metadata_t, %struct.halide_filter_metadata_t* %29, i32 0, i32 3, !dbg !6168
  %31 = load i8*, i8** %30, align 8, !dbg !6168, !tbaa !6169
  %32 = call noundef i8* @_Z6strstrUa9enable_ifILb1EEPKcS0_(i8* noundef %31, i8* noundef getelementptr inbounds ([8 x i8], [8 x i8]* @.str, i64 0, i64 0)), !dbg !6171
  %33 = icmp ne i8* %32, null, !dbg !6171
  br i1 %33, label %40, label %34, !dbg !6172

34:                                               ; preds = %2
  %35 = load %struct.halide_filter_metadata_t*, %struct.halide_filter_metadata_t** %6, align 8, !dbg !6173, !tbaa !5701
  %36 = getelementptr inbounds %struct.halide_filter_metadata_t, %struct.halide_filter_metadata_t* %35, i32 0, i32 3, !dbg !6174
  %37 = load i8*, i8** %36, align 8, !dbg !6174, !tbaa !6169
  %38 = call noundef i8* @_Z6strstrUa9enable_ifILb1EEPKcS0_(i8* noundef %37, i8* noundef getelementptr inbounds ([7 x i8], [7 x i8]* @.str.1, i64 0, i64 0)), !dbg !6175
  %39 = icmp ne i8* %38, null, !dbg !6175
  br label %40, !dbg !6172

40:                                               ; preds = %34, %2
  %41 = phi i1 [ true, %2 ], [ %39, %34 ]
  %42 = zext i1 %41 to i8, !dbg !6166
  store i8 %42, i8* %7, align 1, !dbg !6166, !tbaa !6176
  %43 = bitcast i32* %8 to i8*, !dbg !6178
  call void @llvm.lifetime.start.p0i8(i64 4, i8* %43) #32, !dbg !6178
  call void @llvm.dbg.declare(metadata i32* %8, metadata !6139, metadata !DIExpression()), !dbg !6179
  %44 = load i8, i8* %7, align 1, !dbg !6180, !tbaa !6176, !range !6181
  %45 = trunc i8 %44 to i1, !dbg !6180
  %46 = zext i1 %45 to i64, !dbg !6180
  %47 = select i1 %45, i32 648, i32 2568, !dbg !6180
  store i32 %47, i32* %8, align 4, !dbg !6179, !tbaa !5744
  %48 = bitcast i32* %9 to i8*, !dbg !6182
  call void @llvm.lifetime.start.p0i8(i64 4, i8* %48) #32, !dbg !6182
  call void @llvm.dbg.declare(metadata i32* %9, metadata !6140, metadata !DIExpression()), !dbg !6183
  %49 = load i8, i8* %7, align 1, !dbg !6184, !tbaa !6176, !range !6181
  %50 = trunc i8 %49 to i1, !dbg !6184
  %51 = zext i1 %50 to i64, !dbg !6184
  %52 = select i1 %50, i32 482, i32 1922, !dbg !6184
  store i32 %52, i32* %9, align 4, !dbg !6183, !tbaa !5744
  %53 = bitcast %"class.Halide::Runtime::Buffer"* %10 to i8*, !dbg !6185
  call void @llvm.lifetime.start.p0i8(i64 104, i8* %53) #32, !dbg !6185
  call void @llvm.dbg.declare(metadata %"class.Halide::Runtime::Buffer"* %10, metadata !6141, metadata !DIExpression()), !dbg !6186
  %54 = load i32, i32* %8, align 4, !dbg !6187, !tbaa !5744
  %55 = load i32, i32* %9, align 4, !dbg !6188, !tbaa !5744
  call void @_ZN6Halide7Runtime6BufferItLi2ELi2EEC1IJEvEEiiDpT_(%"class.Halide::Runtime::Buffer"* noundef nonnull align 8 dereferenceable(104) %10, i32 noundef %54, i32 noundef %55), !dbg !6186
  %56 = bitcast i32* %11 to i8*, !dbg !6189
  call void @llvm.lifetime.start.p0i8(i64 4, i8* %56) #32, !dbg !6189
  call void @llvm.dbg.declare(metadata i32* %11, metadata !6142, metadata !DIExpression()), !dbg !6190
  store i32 0, i32* %11, align 4, !dbg !6190, !tbaa !5744
  br label %57, !dbg !6189

57:                                               ; preds = %95, %40
  %58 = load i32, i32* %11, align 4, !dbg !6191, !tbaa !5744
  %59 = invoke noundef i32 @_ZNK6Halide7Runtime6BufferItLi2ELi2EE6heightEv(%"class.Halide::Runtime::Buffer"* noundef nonnull align 8 dereferenceable(104) %10)
          to label %60 unwind label %64, !dbg !6192

60:                                               ; preds = %57
  %61 = icmp slt i32 %58, %59, !dbg !6193
  br i1 %61, label %68, label %62, !dbg !6194

62:                                               ; preds = %60
  store i32 2, i32* %14, align 4
  %63 = bitcast i32* %11 to i8*, !dbg !6195
  call void @llvm.lifetime.end.p0i8(i64 4, i8* %63) #32, !dbg !6195
  br label %100

64:                                               ; preds = %57
  %65 = landingpad { i8*, i32 }
          cleanup, !dbg !6196
  %66 = extractvalue { i8*, i32 } %65, 0, !dbg !6196
  store i8* %66, i8** %12, align 8, !dbg !6196
  %67 = extractvalue { i8*, i32 } %65, 1, !dbg !6196
  store i32 %67, i32* %13, align 4, !dbg !6196
  br label %98, !dbg !6196

68:                                               ; preds = %60
  %69 = bitcast i32* %15 to i8*, !dbg !6197
  call void @llvm.lifetime.start.p0i8(i64 4, i8* %69) #32, !dbg !6197
  call void @llvm.dbg.declare(metadata i32* %15, metadata !6144, metadata !DIExpression()), !dbg !6198
  store i32 0, i32* %15, align 4, !dbg !6198, !tbaa !5744
  br label %70, !dbg !6197

70:                                               ; preds = %91, %68
  %71 = load i32, i32* %15, align 4, !dbg !6199, !tbaa !5744
  %72 = invoke noundef i32 @_ZNK6Halide7Runtime6BufferItLi2ELi2EE5widthEv(%"class.Halide::Runtime::Buffer"* noundef nonnull align 8 dereferenceable(104) %10)
          to label %73 unwind label %77, !dbg !6201

73:                                               ; preds = %70
  %74 = icmp slt i32 %71, %72, !dbg !6202
  br i1 %74, label %82, label %75, !dbg !6203

75:                                               ; preds = %73
  store i32 5, i32* %14, align 4
  %76 = bitcast i32* %15 to i8*, !dbg !6204
  call void @llvm.lifetime.end.p0i8(i64 4, i8* %76) #32, !dbg !6204
  br label %94

77:                                               ; preds = %84, %82, %70
  %78 = landingpad { i8*, i32 }
          cleanup, !dbg !6205
  %79 = extractvalue { i8*, i32 } %78, 0, !dbg !6205
  store i8* %79, i8** %12, align 8, !dbg !6205
  %80 = extractvalue { i8*, i32 } %78, 1, !dbg !6205
  store i32 %80, i32* %13, align 4, !dbg !6205
  %81 = bitcast i32* %15 to i8*, !dbg !6204
  call void @llvm.lifetime.end.p0i8(i64 4, i8* %81) #32, !dbg !6204
  br label %98, !dbg !6204

82:                                               ; preds = %73
  %83 = invoke i32 @rand()
          to label %84 unwind label %77, !dbg !6206

84:                                               ; preds = %82
  %85 = and i32 %83, 4095, !dbg !6208
  %86 = trunc i32 %85 to i16, !dbg !6206
  %87 = load i32, i32* %15, align 4, !dbg !6209, !tbaa !5744
  %88 = load i32, i32* %11, align 4, !dbg !6210, !tbaa !5744
  %89 = invoke noundef nonnull align 2 dereferenceable(2) i16* @_ZN6Halide7Runtime6BufferItLi2ELi2EEclIJiEvEERtiDpT_(%"class.Halide::Runtime::Buffer"* noundef nonnull align 8 dereferenceable(104) %10, i32 noundef %87, i32 noundef %88)
          to label %90 unwind label %77, !dbg !6211

90:                                               ; preds = %84
  store i16 %86, i16* %89, align 2, !dbg !6212, !tbaa !6213
  br label %91, !dbg !6214

91:                                               ; preds = %90
  %92 = load i32, i32* %15, align 4, !dbg !6215, !tbaa !5744
  %93 = add nsw i32 %92, 1, !dbg !6215
  store i32 %93, i32* %15, align 4, !dbg !6215, !tbaa !5744
  br label %70, !dbg !6204, !llvm.loop !6216

94:                                               ; preds = %75
  br label %95, !dbg !6218

95:                                               ; preds = %94
  %96 = load i32, i32* %11, align 4, !dbg !6219, !tbaa !5744
  %97 = add nsw i32 %96, 1, !dbg !6219
  store i32 %97, i32* %11, align 4, !dbg !6219, !tbaa !5744
  br label %57, !dbg !6195, !llvm.loop !6220

98:                                               ; preds = %77, %64
  %99 = bitcast i32* %11 to i8*, !dbg !6195
  call void @llvm.lifetime.end.p0i8(i64 4, i8* %99) #32, !dbg !6195
  br label %263, !dbg !6195

100:                                              ; preds = %62
  %101 = bitcast %"class.Halide::Runtime::Buffer"* %16 to i8*, !dbg !6222
  call void @llvm.lifetime.start.p0i8(i64 104, i8* %101) #32, !dbg !6222
  call void @llvm.dbg.declare(metadata %"class.Halide::Runtime::Buffer"* %16, metadata !6148, metadata !DIExpression()), !dbg !6223
  invoke void @_ZN6Halide7Runtime6BufferItLi2ELi2EEC1ERKS2_(%"class.Halide::Runtime::Buffer"* noundef nonnull align 8 dereferenceable(104) %17, %"class.Halide::Runtime::Buffer"* noundef nonnull align 8 dereferenceable(104) %10)
          to label %102 unwind label %130, !dbg !6224

102:                                              ; preds = %100
  invoke void @_Z4blurN6Halide7Runtime6BufferItLi2ELi2EEE(%"class.Halide::Runtime::Buffer"* sret(%"class.Halide::Runtime::Buffer") align 8 %16, %"class.Halide::Runtime::Buffer"* noundef %17)
          to label %103 unwind label %134, !dbg !6225

103:                                              ; preds = %102
  call void @_ZN6Halide7Runtime6BufferItLi2ELi2EED1Ev(%"class.Halide::Runtime::Buffer"* noundef nonnull align 8 dereferenceable(104) %17) #32, !dbg !6225
  %104 = bitcast double* %18 to i8*, !dbg !6226
  call void @llvm.lifetime.start.p0i8(i64 8, i8* %104) #32, !dbg !6226
  call void @llvm.dbg.declare(metadata double* %18, metadata !6149, metadata !DIExpression()), !dbg !6227
  %105 = load double, double* @t, align 8, !dbg !6228, !tbaa !5707
  store double %105, double* %18, align 8, !dbg !6227, !tbaa !5707
  %106 = bitcast %"class.Halide::Runtime::Buffer"* %19 to i8*, !dbg !6229
  call void @llvm.lifetime.start.p0i8(i64 104, i8* %106) #32, !dbg !6229
  call void @llvm.dbg.declare(metadata %"class.Halide::Runtime::Buffer"* %19, metadata !6150, metadata !DIExpression()), !dbg !6230
  invoke void @_ZN6Halide7Runtime6BufferItLi2ELi2EEC1ERKS2_(%"class.Halide::Runtime::Buffer"* noundef nonnull align 8 dereferenceable(104) %20, %"class.Halide::Runtime::Buffer"* noundef nonnull align 8 dereferenceable(104) %10)
          to label %107 unwind label %138, !dbg !6231

107:                                              ; preds = %103
  invoke void @_Z9blur_fastN6Halide7Runtime6BufferItLi2ELi2EEE(%"class.Halide::Runtime::Buffer"* sret(%"class.Halide::Runtime::Buffer") align 8 %19, %"class.Halide::Runtime::Buffer"* noundef %20)
          to label %108 unwind label %142, !dbg !6232

108:                                              ; preds = %107
  call void @_ZN6Halide7Runtime6BufferItLi2ELi2EED1Ev(%"class.Halide::Runtime::Buffer"* noundef nonnull align 8 dereferenceable(104) %20) #32, !dbg !6232
  %109 = bitcast double* %21 to i8*, !dbg !6233
  call void @llvm.lifetime.start.p0i8(i64 8, i8* %109) #32, !dbg !6233
  call void @llvm.dbg.declare(metadata double* %21, metadata !6151, metadata !DIExpression()), !dbg !6234
  %110 = load double, double* @t, align 8, !dbg !6235, !tbaa !5707
  store double %110, double* %21, align 8, !dbg !6234, !tbaa !5707
  %111 = bitcast %"class.Halide::Runtime::Buffer"* %22 to i8*, !dbg !6236
  call void @llvm.lifetime.start.p0i8(i64 104, i8* %111) #32, !dbg !6236
  call void @llvm.dbg.declare(metadata %"class.Halide::Runtime::Buffer"* %22, metadata !6152, metadata !DIExpression()), !dbg !6237
  invoke void @_ZN6Halide7Runtime6BufferItLi2ELi2EEC1ERKS2_(%"class.Halide::Runtime::Buffer"* noundef nonnull align 8 dereferenceable(104) %23, %"class.Halide::Runtime::Buffer"* noundef nonnull align 8 dereferenceable(104) %10)
          to label %112 unwind label %146, !dbg !6238

112:                                              ; preds = %108
  invoke void @_Z11blur_halideN6Halide7Runtime6BufferItLi2ELi2EEE(%"class.Halide::Runtime::Buffer"* sret(%"class.Halide::Runtime::Buffer") align 8 %22, %"class.Halide::Runtime::Buffer"* noundef %23)
          to label %113 unwind label %150, !dbg !6239

113:                                              ; preds = %112
  call void @_ZN6Halide7Runtime6BufferItLi2ELi2EED1Ev(%"class.Halide::Runtime::Buffer"* noundef nonnull align 8 dereferenceable(104) %23) #32, !dbg !6239
  %114 = bitcast double* %24 to i8*, !dbg !6240
  call void @llvm.lifetime.start.p0i8(i64 8, i8* %114) #32, !dbg !6240
  call void @llvm.dbg.declare(metadata double* %24, metadata !6153, metadata !DIExpression()), !dbg !6241
  %115 = load double, double* @t, align 8, !dbg !6242, !tbaa !5707
  store double %115, double* %24, align 8, !dbg !6241, !tbaa !5707
  %116 = load double, double* %18, align 8, !dbg !6243, !tbaa !5707
  %117 = load double, double* %21, align 8, !dbg !6244, !tbaa !5707
  %118 = load double, double* %24, align 8, !dbg !6245, !tbaa !5707
  %119 = invoke i32 (i8*, ...) @printf(i8* noundef getelementptr inbounds ([17 x i8], [17 x i8]* @.str.2, i64 0, i64 0), double noundef %116, double noundef %117, double noundef %118)
          to label %120 unwind label %154, !dbg !6246

120:                                              ; preds = %113
  %121 = bitcast i32* %25 to i8*, !dbg !6247
  call void @llvm.lifetime.start.p0i8(i64 4, i8* %121) #32, !dbg !6247
  call void @llvm.dbg.declare(metadata i32* %25, metadata !6154, metadata !DIExpression()), !dbg !6248
  store i32 64, i32* %25, align 4, !dbg !6248, !tbaa !5744
  br label %122, !dbg !6247

122:                                              ; preds = %234, %120
  %123 = load i32, i32* %25, align 4, !dbg !6249, !tbaa !5744
  %124 = invoke noundef i32 @_ZNK6Halide7Runtime6BufferItLi2ELi2EE6heightEv(%"class.Halide::Runtime::Buffer"* noundef nonnull align 8 dereferenceable(104) %10)
          to label %125 unwind label %158, !dbg !6250

125:                                              ; preds = %122
  %126 = sub nsw i32 %124, 64, !dbg !6251
  %127 = icmp slt i32 %123, %126, !dbg !6252
  br i1 %127, label %162, label %128, !dbg !6253

128:                                              ; preds = %125
  store i32 8, i32* %14, align 4
  %129 = bitcast i32* %25 to i8*, !dbg !6254
  call void @llvm.lifetime.end.p0i8(i64 4, i8* %129) #32, !dbg !6254
  br label %239

130:                                              ; preds = %100
  %131 = landingpad { i8*, i32 }
          cleanup, !dbg !6255
  %132 = extractvalue { i8*, i32 } %131, 0, !dbg !6255
  store i8* %132, i8** %12, align 8, !dbg !6255
  %133 = extractvalue { i8*, i32 } %131, 1, !dbg !6255
  store i32 %133, i32* %13, align 4, !dbg !6255
  br label %261, !dbg !6255

134:                                              ; preds = %102
  %135 = landingpad { i8*, i32 }
          cleanup, !dbg !6255
  %136 = extractvalue { i8*, i32 } %135, 0, !dbg !6255
  store i8* %136, i8** %12, align 8, !dbg !6255
  %137 = extractvalue { i8*, i32 } %135, 1, !dbg !6255
  store i32 %137, i32* %13, align 4, !dbg !6255
  call void @_ZN6Halide7Runtime6BufferItLi2ELi2EED1Ev(%"class.Halide::Runtime::Buffer"* noundef nonnull align 8 dereferenceable(104) %17) #32, !dbg !6225
  br label %261, !dbg !6225

138:                                              ; preds = %103
  %139 = landingpad { i8*, i32 }
          cleanup, !dbg !6255
  %140 = extractvalue { i8*, i32 } %139, 0, !dbg !6255
  store i8* %140, i8** %12, align 8, !dbg !6255
  %141 = extractvalue { i8*, i32 } %139, 1, !dbg !6255
  store i32 %141, i32* %13, align 4, !dbg !6255
  br label %258, !dbg !6255

142:                                              ; preds = %107
  %143 = landingpad { i8*, i32 }
          cleanup, !dbg !6255
  %144 = extractvalue { i8*, i32 } %143, 0, !dbg !6255
  store i8* %144, i8** %12, align 8, !dbg !6255
  %145 = extractvalue { i8*, i32 } %143, 1, !dbg !6255
  store i32 %145, i32* %13, align 4, !dbg !6255
  call void @_ZN6Halide7Runtime6BufferItLi2ELi2EED1Ev(%"class.Halide::Runtime::Buffer"* noundef nonnull align 8 dereferenceable(104) %20) #32, !dbg !6232
  br label %258, !dbg !6232

146:                                              ; preds = %108
  %147 = landingpad { i8*, i32 }
          cleanup, !dbg !6255
  %148 = extractvalue { i8*, i32 } %147, 0, !dbg !6255
  store i8* %148, i8** %12, align 8, !dbg !6255
  %149 = extractvalue { i8*, i32 } %147, 1, !dbg !6255
  store i32 %149, i32* %13, align 4, !dbg !6255
  br label %255, !dbg !6255

150:                                              ; preds = %112
  %151 = landingpad { i8*, i32 }
          cleanup, !dbg !6255
  %152 = extractvalue { i8*, i32 } %151, 0, !dbg !6255
  store i8* %152, i8** %12, align 8, !dbg !6255
  %153 = extractvalue { i8*, i32 } %151, 1, !dbg !6255
  store i32 %153, i32* %13, align 4, !dbg !6255
  call void @_ZN6Halide7Runtime6BufferItLi2ELi2EED1Ev(%"class.Halide::Runtime::Buffer"* noundef nonnull align 8 dereferenceable(104) %23) #32, !dbg !6239
  br label %255, !dbg !6239

154:                                              ; preds = %239, %113
  %155 = landingpad { i8*, i32 }
          cleanup, !dbg !6255
  %156 = extractvalue { i8*, i32 } %155, 0, !dbg !6255
  store i8* %156, i8** %12, align 8, !dbg !6255
  %157 = extractvalue { i8*, i32 } %155, 1, !dbg !6255
  store i32 %157, i32* %13, align 4, !dbg !6255
  br label %253, !dbg !6255

158:                                              ; preds = %122
  %159 = landingpad { i8*, i32 }
          cleanup, !dbg !6256
  %160 = extractvalue { i8*, i32 } %159, 0, !dbg !6256
  store i8* %160, i8** %12, align 8, !dbg !6256
  %161 = extractvalue { i8*, i32 } %159, 1, !dbg !6256
  store i32 %161, i32* %13, align 4, !dbg !6256
  br label %237, !dbg !6256

162:                                              ; preds = %125
  %163 = bitcast i32* %26 to i8*, !dbg !6257
  call void @llvm.lifetime.start.p0i8(i64 4, i8* %163) #32, !dbg !6257
  call void @llvm.dbg.declare(metadata i32* %26, metadata !6156, metadata !DIExpression()), !dbg !6258
  store i32 64, i32* %26, align 4, !dbg !6258, !tbaa !5744
  br label %164, !dbg !6257

164:                                              ; preds = %230, %162
  %165 = load i32, i32* %26, align 4, !dbg !6259, !tbaa !5744
  %166 = invoke noundef i32 @_ZNK6Halide7Runtime6BufferItLi2ELi2EE5widthEv(%"class.Halide::Runtime::Buffer"* noundef nonnull align 8 dereferenceable(104) %10)
          to label %167 unwind label %172, !dbg !6261

167:                                              ; preds = %164
  %168 = sub nsw i32 %166, 64, !dbg !6262
  %169 = icmp slt i32 %165, %168, !dbg !6263
  br i1 %169, label %177, label %170, !dbg !6264

170:                                              ; preds = %167
  store i32 11, i32* %14, align 4
  %171 = bitcast i32* %26 to i8*, !dbg !6265
  call void @llvm.lifetime.end.p0i8(i64 4, i8* %171) #32, !dbg !6265
  br label %233

172:                                              ; preds = %227, %223, %217, %211, %205, %195, %191, %181, %177, %164
  %173 = landingpad { i8*, i32 }
          cleanup, !dbg !6266
  %174 = extractvalue { i8*, i32 } %173, 0, !dbg !6266
  store i8* %174, i8** %12, align 8, !dbg !6266
  %175 = extractvalue { i8*, i32 } %173, 1, !dbg !6266
  store i32 %175, i32* %13, align 4, !dbg !6266
  %176 = bitcast i32* %26 to i8*, !dbg !6265
  call void @llvm.lifetime.end.p0i8(i64 4, i8* %176) #32, !dbg !6265
  br label %237, !dbg !6265

177:                                              ; preds = %167
  %178 = load i32, i32* %26, align 4, !dbg !6267, !tbaa !5744
  %179 = load i32, i32* %25, align 4, !dbg !6270, !tbaa !5744
  %180 = invoke noundef nonnull align 2 dereferenceable(2) i16* @_ZN6Halide7Runtime6BufferItLi2ELi2EEclIJiEvEERtiDpT_(%"class.Halide::Runtime::Buffer"* noundef nonnull align 8 dereferenceable(104) %16, i32 noundef %178, i32 noundef %179)
          to label %181 unwind label %172, !dbg !6271

181:                                              ; preds = %177
  %182 = load i16, i16* %180, align 2, !dbg !6271, !tbaa !6213
  %183 = zext i16 %182 to i32, !dbg !6271
  %184 = load i32, i32* %26, align 4, !dbg !6272, !tbaa !5744
  %185 = load i32, i32* %25, align 4, !dbg !6273, !tbaa !5744
  %186 = invoke noundef nonnull align 2 dereferenceable(2) i16* @_ZN6Halide7Runtime6BufferItLi2ELi2EEclIJiEvEERtiDpT_(%"class.Halide::Runtime::Buffer"* noundef nonnull align 8 dereferenceable(104) %19, i32 noundef %184, i32 noundef %185)
          to label %187 unwind label %172, !dbg !6274

187:                                              ; preds = %181
  %188 = load i16, i16* %186, align 2, !dbg !6274, !tbaa !6213
  %189 = zext i16 %188 to i32, !dbg !6274
  %190 = icmp ne i32 %183, %189, !dbg !6275
  br i1 %190, label %205, label %191, !dbg !6276

191:                                              ; preds = %187
  %192 = load i32, i32* %26, align 4, !dbg !6277, !tbaa !5744
  %193 = load i32, i32* %25, align 4, !dbg !6278, !tbaa !5744
  %194 = invoke noundef nonnull align 2 dereferenceable(2) i16* @_ZN6Halide7Runtime6BufferItLi2ELi2EEclIJiEvEERtiDpT_(%"class.Halide::Runtime::Buffer"* noundef nonnull align 8 dereferenceable(104) %16, i32 noundef %192, i32 noundef %193)
          to label %195 unwind label %172, !dbg !6279

195:                                              ; preds = %191
  %196 = load i16, i16* %194, align 2, !dbg !6279, !tbaa !6213
  %197 = zext i16 %196 to i32, !dbg !6279
  %198 = load i32, i32* %26, align 4, !dbg !6280, !tbaa !5744
  %199 = load i32, i32* %25, align 4, !dbg !6281, !tbaa !5744
  %200 = invoke noundef nonnull align 2 dereferenceable(2) i16* @_ZN6Halide7Runtime6BufferItLi2ELi2EEclIJiEvEERtiDpT_(%"class.Halide::Runtime::Buffer"* noundef nonnull align 8 dereferenceable(104) %22, i32 noundef %198, i32 noundef %199)
          to label %201 unwind label %172, !dbg !6282

201:                                              ; preds = %195
  %202 = load i16, i16* %200, align 2, !dbg !6282, !tbaa !6213
  %203 = zext i16 %202 to i32, !dbg !6282
  %204 = icmp ne i32 %197, %203, !dbg !6283
  br i1 %204, label %205, label %229, !dbg !6284

205:                                              ; preds = %201, %187
  %206 = load i32, i32* %26, align 4, !dbg !6285, !tbaa !5744
  %207 = load i32, i32* %25, align 4, !dbg !6287, !tbaa !5744
  %208 = load i32, i32* %26, align 4, !dbg !6288, !tbaa !5744
  %209 = load i32, i32* %25, align 4, !dbg !6289, !tbaa !5744
  %210 = invoke noundef nonnull align 2 dereferenceable(2) i16* @_ZN6Halide7Runtime6BufferItLi2ELi2EEclIJiEvEERtiDpT_(%"class.Halide::Runtime::Buffer"* noundef nonnull align 8 dereferenceable(104) %16, i32 noundef %208, i32 noundef %209)
          to label %211 unwind label %172, !dbg !6290

211:                                              ; preds = %205
  %212 = load i16, i16* %210, align 2, !dbg !6290, !tbaa !6213
  %213 = zext i16 %212 to i32, !dbg !6290
  %214 = load i32, i32* %26, align 4, !dbg !6291, !tbaa !5744
  %215 = load i32, i32* %25, align 4, !dbg !6292, !tbaa !5744
  %216 = invoke noundef nonnull align 2 dereferenceable(2) i16* @_ZN6Halide7Runtime6BufferItLi2ELi2EEclIJiEvEERtiDpT_(%"class.Halide::Runtime::Buffer"* noundef nonnull align 8 dereferenceable(104) %19, i32 noundef %214, i32 noundef %215)
          to label %217 unwind label %172, !dbg !6293

217:                                              ; preds = %211
  %218 = load i16, i16* %216, align 2, !dbg !6293, !tbaa !6213
  %219 = zext i16 %218 to i32, !dbg !6293
  %220 = load i32, i32* %26, align 4, !dbg !6294, !tbaa !5744
  %221 = load i32, i32* %25, align 4, !dbg !6295, !tbaa !5744
  %222 = invoke noundef nonnull align 2 dereferenceable(2) i16* @_ZN6Halide7Runtime6BufferItLi2ELi2EEclIJiEvEERtiDpT_(%"class.Halide::Runtime::Buffer"* noundef nonnull align 8 dereferenceable(104) %22, i32 noundef %220, i32 noundef %221)
          to label %223 unwind label %172, !dbg !6296

223:                                              ; preds = %217
  %224 = load i16, i16* %222, align 2, !dbg !6296, !tbaa !6213
  %225 = zext i16 %224 to i32, !dbg !6296
  %226 = invoke i32 (i8*, ...) @printf(i8* noundef getelementptr inbounds ([33 x i8], [33 x i8]* @.str.3, i64 0, i64 0), i32 noundef %206, i32 noundef %207, i32 noundef %213, i32 noundef %219, i32 noundef %225)
          to label %227 unwind label %172, !dbg !6297

227:                                              ; preds = %223
  invoke void @abort() #33
          to label %228 unwind label %172, !dbg !6298

228:                                              ; preds = %227
  unreachable, !dbg !6298

229:                                              ; preds = %201
  br label %230, !dbg !6299

230:                                              ; preds = %229
  %231 = load i32, i32* %26, align 4, !dbg !6300, !tbaa !5744
  %232 = add nsw i32 %231, 1, !dbg !6300
  store i32 %232, i32* %26, align 4, !dbg !6300, !tbaa !5744
  br label %164, !dbg !6265, !llvm.loop !6301

233:                                              ; preds = %170
  br label %234, !dbg !6303

234:                                              ; preds = %233
  %235 = load i32, i32* %25, align 4, !dbg !6304, !tbaa !5744
  %236 = add nsw i32 %235, 1, !dbg !6304
  store i32 %236, i32* %25, align 4, !dbg !6304, !tbaa !5744
  br label %122, !dbg !6254, !llvm.loop !6305

237:                                              ; preds = %172, %158
  %238 = bitcast i32* %25 to i8*, !dbg !6254
  call void @llvm.lifetime.end.p0i8(i64 4, i8* %238) #32, !dbg !6254
  br label %253, !dbg !6254

239:                                              ; preds = %128
  %240 = invoke i32 (i8*, ...) @printf(i8* noundef getelementptr inbounds ([10 x i8], [10 x i8]* @.str.4, i64 0, i64 0))
          to label %241 unwind label %154, !dbg !6307

241:                                              ; preds = %239
  store i32 0, i32* %3, align 4, !dbg !6308
  store i32 1, i32* %14, align 4
  %242 = bitcast double* %24 to i8*, !dbg !6255
  call void @llvm.lifetime.end.p0i8(i64 8, i8* %242) #32, !dbg !6255
  call void @_ZN6Halide7Runtime6BufferItLi2ELi2EED1Ev(%"class.Halide::Runtime::Buffer"* noundef nonnull align 8 dereferenceable(104) %22) #32, !dbg !6255
  %243 = bitcast %"class.Halide::Runtime::Buffer"* %22 to i8*, !dbg !6255
  call void @llvm.lifetime.end.p0i8(i64 104, i8* %243) #32, !dbg !6255
  %244 = bitcast double* %21 to i8*, !dbg !6255
  call void @llvm.lifetime.end.p0i8(i64 8, i8* %244) #32, !dbg !6255
  call void @_ZN6Halide7Runtime6BufferItLi2ELi2EED1Ev(%"class.Halide::Runtime::Buffer"* noundef nonnull align 8 dereferenceable(104) %19) #32, !dbg !6255
  %245 = bitcast %"class.Halide::Runtime::Buffer"* %19 to i8*, !dbg !6255
  call void @llvm.lifetime.end.p0i8(i64 104, i8* %245) #32, !dbg !6255
  %246 = bitcast double* %18 to i8*, !dbg !6255
  call void @llvm.lifetime.end.p0i8(i64 8, i8* %246) #32, !dbg !6255
  call void @_ZN6Halide7Runtime6BufferItLi2ELi2EED1Ev(%"class.Halide::Runtime::Buffer"* noundef nonnull align 8 dereferenceable(104) %16) #32, !dbg !6255
  %247 = bitcast %"class.Halide::Runtime::Buffer"* %16 to i8*, !dbg !6255
  call void @llvm.lifetime.end.p0i8(i64 104, i8* %247) #32, !dbg !6255
  call void @_ZN6Halide7Runtime6BufferItLi2ELi2EED1Ev(%"class.Halide::Runtime::Buffer"* noundef nonnull align 8 dereferenceable(104) %10) #32, !dbg !6255
  %248 = bitcast %"class.Halide::Runtime::Buffer"* %10 to i8*, !dbg !6255
  call void @llvm.lifetime.end.p0i8(i64 104, i8* %248) #32, !dbg !6255
  %249 = bitcast i32* %9 to i8*, !dbg !6255
  call void @llvm.lifetime.end.p0i8(i64 4, i8* %249) #32, !dbg !6255
  %250 = bitcast i32* %8 to i8*, !dbg !6255
  call void @llvm.lifetime.end.p0i8(i64 4, i8* %250) #32, !dbg !6255
  call void @llvm.lifetime.end.p0i8(i64 1, i8* %7) #32, !dbg !6255
  %251 = bitcast %struct.halide_filter_metadata_t** %6 to i8*, !dbg !6255
  call void @llvm.lifetime.end.p0i8(i64 8, i8* %251) #32, !dbg !6255
  %252 = load i32, i32* %3, align 4, !dbg !6255
  ret i32 %252, !dbg !6255

253:                                              ; preds = %237, %154
  %254 = bitcast double* %24 to i8*, !dbg !6255
  call void @llvm.lifetime.end.p0i8(i64 8, i8* %254) #32, !dbg !6255
  call void @_ZN6Halide7Runtime6BufferItLi2ELi2EED1Ev(%"class.Halide::Runtime::Buffer"* noundef nonnull align 8 dereferenceable(104) %22) #32, !dbg !6255
  br label %255, !dbg !6255

255:                                              ; preds = %253, %150, %146
  %256 = bitcast %"class.Halide::Runtime::Buffer"* %22 to i8*, !dbg !6255
  call void @llvm.lifetime.end.p0i8(i64 104, i8* %256) #32, !dbg !6255
  %257 = bitcast double* %21 to i8*, !dbg !6255
  call void @llvm.lifetime.end.p0i8(i64 8, i8* %257) #32, !dbg !6255
  call void @_ZN6Halide7Runtime6BufferItLi2ELi2EED1Ev(%"class.Halide::Runtime::Buffer"* noundef nonnull align 8 dereferenceable(104) %19) #32, !dbg !6255
  br label %258, !dbg !6255

258:                                              ; preds = %255, %142, %138
  %259 = bitcast %"class.Halide::Runtime::Buffer"* %19 to i8*, !dbg !6255
  call void @llvm.lifetime.end.p0i8(i64 104, i8* %259) #32, !dbg !6255
  %260 = bitcast double* %18 to i8*, !dbg !6255
  call void @llvm.lifetime.end.p0i8(i64 8, i8* %260) #32, !dbg !6255
  call void @_ZN6Halide7Runtime6BufferItLi2ELi2EED1Ev(%"class.Halide::Runtime::Buffer"* noundef nonnull align 8 dereferenceable(104) %16) #32, !dbg !6255
  br label %261, !dbg !6255

261:                                              ; preds = %258, %134, %130
  %262 = bitcast %"class.Halide::Runtime::Buffer"* %16 to i8*, !dbg !6255
  call void @llvm.lifetime.end.p0i8(i64 104, i8* %262) #32, !dbg !6255
  br label %263, !dbg !6255

263:                                              ; preds = %261, %98
  call void @_ZN6Halide7Runtime6BufferItLi2ELi2EED1Ev(%"class.Halide::Runtime::Buffer"* noundef nonnull align 8 dereferenceable(104) %10) #32, !dbg !6255
  %264 = bitcast %"class.Halide::Runtime::Buffer"* %10 to i8*, !dbg !6255
  call void @llvm.lifetime.end.p0i8(i64 104, i8* %264) #32, !dbg !6255
  %265 = bitcast i32* %9 to i8*, !dbg !6255
  call void @llvm.lifetime.end.p0i8(i64 4, i8* %265) #32, !dbg !6255
  %266 = bitcast i32* %8 to i8*, !dbg !6255
  call void @llvm.lifetime.end.p0i8(i64 4, i8* %266) #32, !dbg !6255
  call void @llvm.lifetime.end.p0i8(i64 1, i8* %7) #32, !dbg !6255
  %267 = bitcast %struct.halide_filter_metadata_t** %6 to i8*, !dbg !6255
  call void @llvm.lifetime.end.p0i8(i64 8, i8* %267) #32, !dbg !6255
  br label %268, !dbg !6255

268:                                              ; preds = %263
  %269 = load i8*, i8** %12, align 8, !dbg !6255
  %270 = load i32, i32* %13, align 4, !dbg !6255
  %271 = insertvalue { i8*, i32 } undef, i8* %269, 0, !dbg !6255
  %272 = insertvalue { i8*, i32 } %271, i32 %270, 1, !dbg !6255
  resume { i8*, i32 } %272, !dbg !6255
}

declare !dbg !6309 %struct.halide_filter_metadata_t* @halide_blur_metadata() #6

; Function Attrs: inlinehint mustprogress ssp uwtable
define linkonce_odr hidden noundef i8* @_Z6strstrUa9enable_ifILb1EEPKcS0_(i8* noundef %0, i8* noundef %1) #4 !dbg !6312 {
  %3 = alloca i8*, align 8
  %4 = alloca i8*, align 8
  store i8* %0, i8** %3, align 8, !tbaa !5701
  call void @llvm.dbg.declare(metadata i8** %3, metadata !6316, metadata !DIExpression()), !dbg !6318
  store i8* %1, i8** %4, align 8, !tbaa !5701
  call void @llvm.dbg.declare(metadata i8** %4, metadata !6317, metadata !DIExpression()), !dbg !6319
  %5 = load i8*, i8** %3, align 8, !dbg !6320, !tbaa !5701
  %6 = load i8*, i8** %4, align 8, !dbg !6321, !tbaa !5701
  %7 = call noundef i8* @_Z15__libcpp_strstrPKcS0_(i8* noundef %5, i8* noundef %6), !dbg !6322
  ret i8* %7, !dbg !6323
}

declare !dbg !6324 i32 @rand() #6

; Function Attrs: alwaysinline mustprogress ssp uwtable
define linkonce_odr hidden noundef nonnull align 2 dereferenceable(2) i16* @_ZN6Halide7Runtime6BufferItLi2ELi2EEclIJiEvEERtiDpT_(%"class.Halide::Runtime::Buffer"* noundef nonnull align 8 dereferenceable(104) %0, i32 noundef %1, i32 noundef %2) #9 align 2 !dbg !6325 {
  %4 = alloca %"class.Halide::Runtime::Buffer"*, align 8
  %5 = alloca i32, align 4
  %6 = alloca i32, align 4
  %7 = alloca i32, align 4
  store %"class.Halide::Runtime::Buffer"* %0, %"class.Halide::Runtime::Buffer"** %4, align 8, !tbaa !5701
  call void @llvm.dbg.declare(metadata %"class.Halide::Runtime::Buffer"** %4, metadata !6334, metadata !DIExpression()), !dbg !6338
  store i32 %1, i32* %5, align 4, !tbaa !5744
  call void @llvm.dbg.declare(metadata i32* %5, metadata !6335, metadata !DIExpression()), !dbg !6339
  store i32 %2, i32* %6, align 4, !tbaa !5744
  call void @llvm.dbg.declare(metadata i32* %6, metadata !6336, metadata !DIExpression()), !dbg !6340
  %8 = load %"class.Halide::Runtime::Buffer"*, %"class.Halide::Runtime::Buffer"** %4, align 8
  %9 = bitcast i32* %7 to i8*, !dbg !6341
  call void @llvm.lifetime.start.p0i8(i64 4, i8* %9) #32, !dbg !6341
  call void @llvm.dbg.declare(metadata i32* %7, metadata !6337, metadata !DIExpression()), !dbg !6342
  store i32 2, i32* %7, align 4, !dbg !6342, !tbaa !5744
  call void @_ZN6Halide7Runtime6BufferItLi2ELi2EE14set_host_dirtyEb(%"class.Halide::Runtime::Buffer"* noundef nonnull align 8 dereferenceable(104) %8, i1 noundef zeroext true), !dbg !6343
  %10 = load i32, i32* %5, align 4, !dbg !6344, !tbaa !5744
  %11 = load i32, i32* %6, align 4, !dbg !6345, !tbaa !5744
  %12 = call noundef i16* @_ZNK6Halide7Runtime6BufferItLi2ELi2EE10address_ofIJiiEEEPtDpT_(%"class.Halide::Runtime::Buffer"* noundef nonnull align 8 dereferenceable(104) %8, i32 noundef %10, i32 noundef %11), !dbg !6346
  %13 = bitcast i32* %7 to i8*, !dbg !6347
  call void @llvm.lifetime.end.p0i8(i64 4, i8* %13) #32, !dbg !6347
  ret i16* %12, !dbg !6348
}

; Function Attrs: ssp uwtable
define linkonce_odr hidden void @_ZN6Halide7Runtime6BufferItLi2ELi2EEC1ERKS2_(%"class.Halide::Runtime::Buffer"* noundef nonnull align 8 dereferenceable(104) %0, %"class.Halide::Runtime::Buffer"* noundef nonnull align 8 dereferenceable(104) %1) unnamed_addr #3 align 2 !dbg !6349 {
  %3 = alloca %"class.Halide::Runtime::Buffer"*, align 8
  %4 = alloca %"class.Halide::Runtime::Buffer"*, align 8
  store %"class.Halide::Runtime::Buffer"* %0, %"class.Halide::Runtime::Buffer"** %3, align 8, !tbaa !5701
  call void @llvm.dbg.declare(metadata %"class.Halide::Runtime::Buffer"** %3, metadata !6351, metadata !DIExpression()), !dbg !6353
  store %"class.Halide::Runtime::Buffer"* %1, %"class.Halide::Runtime::Buffer"** %4, align 8, !tbaa !5701
  call void @llvm.dbg.declare(metadata %"class.Halide::Runtime::Buffer"** %4, metadata !6352, metadata !DIExpression()), !dbg !6354
  %5 = load %"class.Halide::Runtime::Buffer"*, %"class.Halide::Runtime::Buffer"** %3, align 8
  %6 = load %"class.Halide::Runtime::Buffer"*, %"class.Halide::Runtime::Buffer"** %4, align 8, !dbg !6355
  call void @_ZN6Halide7Runtime6BufferItLi2ELi2EEC2ERKS2_(%"class.Halide::Runtime::Buffer"* noundef nonnull align 8 dereferenceable(104) %5, %"class.Halide::Runtime::Buffer"* noundef nonnull align 8 dereferenceable(104) %6), !dbg !6355
  ret void, !dbg !6356
}

declare i32 @printf(i8* noundef, ...) #6

; Function Attrs: cold noreturn
declare void @abort() #10

; Function Attrs: mustprogress nounwind ssp uwtable
define linkonce_odr hidden noundef double @_ZNSt3__114numeric_limitsIdE8infinityEv() #7 align 2 !dbg !6357 {
  %1 = call noundef double @_ZNSt3__123__libcpp_numeric_limitsIdLb1EE8infinityEv() #32, !dbg !6438
  ret double %1, !dbg !6439
}

; Function Attrs: inlinehint mustprogress nounwind ssp uwtable
define linkonce_odr hidden i64 @_ZN6Halide5Tools13benchmark_nowEv() #11 !dbg !6440 {
  %1 = alloca %"class.std::__1::chrono::time_point", align 8
  %2 = call i64 @_ZNSt3__16chrono12steady_clock3nowEv() #32, !dbg !6441
  %3 = getelementptr inbounds %"class.std::__1::chrono::time_point", %"class.std::__1::chrono::time_point"* %1, i32 0, i32 0, !dbg !6441
  %4 = getelementptr inbounds %"class.std::__1::chrono::duration", %"class.std::__1::chrono::duration"* %3, i32 0, i32 0, !dbg !6441
  store i64 %2, i64* %4, align 8, !dbg !6441
  %5 = getelementptr inbounds %"class.std::__1::chrono::time_point", %"class.std::__1::chrono::time_point"* %1, i32 0, i32 0, !dbg !6442
  %6 = getelementptr inbounds %"class.std::__1::chrono::duration", %"class.std::__1::chrono::duration"* %5, i32 0, i32 0, !dbg !6442
  %7 = load i64, i64* %6, align 8, !dbg !6442
  ret i64 %7, !dbg !6442
}

; Function Attrs: mustprogress ssp uwtable
define linkonce_odr hidden void @_ZNKSt3__18functionIFvvEEclEv(%"class.std::__1::function"* noundef nonnull align 16 dereferenceable(48) %0) #0 align 2 !dbg !6443 {
  %2 = alloca %"class.std::__1::function"*, align 8
  store %"class.std::__1::function"* %0, %"class.std::__1::function"** %2, align 8, !tbaa !5701
  call void @llvm.dbg.declare(metadata %"class.std::__1::function"** %2, metadata !6445, metadata !DIExpression()), !dbg !6447
  %3 = load %"class.std::__1::function"*, %"class.std::__1::function"** %2, align 8
  %4 = getelementptr inbounds %"class.std::__1::function", %"class.std::__1::function"* %3, i32 0, i32 0, !dbg !6448
  call void @_ZNKSt3__110__function12__value_funcIFvvEEclEv(%"class.std::__1::__function::__value_func"* noundef nonnull align 16 dereferenceable(40) %4), !dbg !6448
  ret void, !dbg !6449
}

; Function Attrs: inlinehint mustprogress ssp uwtable
define linkonce_odr hidden noundef double @_ZN6Halide5Tools26benchmark_duration_secondsENSt3__16chrono10time_pointINS2_12steady_clockENS2_8durationIxNS1_5ratioILl1ELl1000000000EEEEEEES9_(i64 %0, i64 %1) #4 !dbg !6450 {
  %3 = alloca %"class.std::__1::chrono::time_point", align 8
  %4 = alloca %"class.std::__1::chrono::time_point", align 8
  %5 = alloca %"class.std::__1::chrono::duration.3", align 8
  %6 = alloca %"class.std::__1::chrono::duration", align 8
  %7 = getelementptr inbounds %"class.std::__1::chrono::time_point", %"class.std::__1::chrono::time_point"* %3, i32 0, i32 0
  %8 = getelementptr inbounds %"class.std::__1::chrono::duration", %"class.std::__1::chrono::duration"* %7, i32 0, i32 0
  store i64 %0, i64* %8, align 8
  %9 = getelementptr inbounds %"class.std::__1::chrono::time_point", %"class.std::__1::chrono::time_point"* %4, i32 0, i32 0
  %10 = getelementptr inbounds %"class.std::__1::chrono::duration", %"class.std::__1::chrono::duration"* %9, i32 0, i32 0
  store i64 %1, i64* %10, align 8
  call void @llvm.dbg.declare(metadata %"class.std::__1::chrono::time_point"* %3, metadata !6454, metadata !DIExpression()), !dbg !6456
  call void @llvm.dbg.declare(metadata %"class.std::__1::chrono::time_point"* %4, metadata !6455, metadata !DIExpression()), !dbg !6457
  %11 = bitcast %"class.std::__1::chrono::duration.3"* %5 to i8*, !dbg !6458
  call void @llvm.lifetime.start.p0i8(i64 8, i8* %11) #32, !dbg !6458
  %12 = bitcast %"class.std::__1::chrono::duration"* %6 to i8*, !dbg !6459
  call void @llvm.lifetime.start.p0i8(i64 8, i8* %12) #32, !dbg !6459
  %13 = call i64 @_ZNSt3__16chronomiINS0_12steady_clockENS0_8durationIxNS_5ratioILl1ELl1000000000EEEEES6_EENS_11common_typeIJT0_T1_EE4typeERKNS0_10time_pointIT_S8_EERKNSC_ISD_S9_EE(%"class.std::__1::chrono::time_point"* noundef nonnull align 8 dereferenceable(8) %4, %"class.std::__1::chrono::time_point"* noundef nonnull align 8 dereferenceable(8) %3), !dbg !6460
  %14 = getelementptr inbounds %"class.std::__1::chrono::duration", %"class.std::__1::chrono::duration"* %6, i32 0, i32 0, !dbg !6460
  store i64 %13, i64* %14, align 8, !dbg !6460
  %15 = call double @_ZNSt3__16chrono13duration_castINS0_8durationIdNS_5ratioILl1ELl1EEEEExNS3_ILl1ELl1000000000EEEEENS_9enable_ifIXsr13__is_durationIT_EE5valueES8_E4typeERKNS2_IT0_T1_EE(%"class.std::__1::chrono::duration"* noundef nonnull align 8 dereferenceable(8) %6), !dbg !6458
  %16 = getelementptr inbounds %"class.std::__1::chrono::duration.3", %"class.std::__1::chrono::duration.3"* %5, i32 0, i32 0, !dbg !6458
  store double %15, double* %16, align 8, !dbg !6458
  %17 = call noundef double @_ZNKSt3__16chrono8durationIdNS_5ratioILl1ELl1EEEE5countEv(%"class.std::__1::chrono::duration.3"* noundef nonnull align 8 dereferenceable(8) %5), !dbg !6461
  %18 = bitcast %"class.std::__1::chrono::duration"* %6 to i8*, !dbg !6462
  call void @llvm.lifetime.end.p0i8(i64 8, i8* %18) #32, !dbg !6462
  %19 = bitcast %"class.std::__1::chrono::duration.3"* %5 to i8*, !dbg !6462
  call void @llvm.lifetime.end.p0i8(i64 8, i8* %19) #32, !dbg !6462
  ret double %17, !dbg !6462
}

; Function Attrs: argmemonly nofree nounwind willreturn
declare void @llvm.memcpy.p0i8.p0i8.i64(i8* noalias nocapture writeonly, i8* noalias nocapture readonly, i64, i1 immarg) #12

; Function Attrs: inlinehint mustprogress ssp uwtable
define linkonce_odr hidden noundef nonnull align 8 dereferenceable(8) double* @_ZNSt3__13minIdEERKT_S3_S3_(double* noundef nonnull align 8 dereferenceable(8) %0, double* noundef nonnull align 8 dereferenceable(8) %1) #4 !dbg !6463 {
  %3 = alloca double*, align 8
  %4 = alloca double*, align 8
  %5 = alloca %"struct.std::__1::__less", align 1
  store double* %0, double** %3, align 8, !tbaa !5701
  call void @llvm.dbg.declare(metadata double** %3, metadata !6470, metadata !DIExpression()), !dbg !6472
  store double* %1, double** %4, align 8, !tbaa !5701
  call void @llvm.dbg.declare(metadata double** %4, metadata !6471, metadata !DIExpression()), !dbg !6473
  %6 = load double*, double** %3, align 8, !dbg !6474, !tbaa !5701
  %7 = load double*, double** %4, align 8, !dbg !6475, !tbaa !5701
  %8 = call noundef nonnull align 8 dereferenceable(8) double* @_ZNSt3__13minIdNS_6__lessIddEEEERKT_S5_S5_T0_(double* noundef nonnull align 8 dereferenceable(8) %6, double* noundef nonnull align 8 dereferenceable(8) %7), !dbg !6476
  ret double* %8, !dbg !6477
}

; Function Attrs: mustprogress nounwind ssp uwtable
define linkonce_odr hidden noundef double @_ZNSt3__123__libcpp_numeric_limitsIdLb1EE8infinityEv() #7 align 2 !dbg !6478 {
  ret double 0x7FF0000000000000, !dbg !6479
}

; Function Attrs: nounwind
declare i64 @_ZNSt3__16chrono12steady_clock3nowEv() #13

; Function Attrs: mustprogress ssp uwtable
define linkonce_odr hidden void @_ZNKSt3__110__function12__value_funcIFvvEEclEv(%"class.std::__1::__function::__value_func"* noundef nonnull align 16 dereferenceable(40) %0) #0 align 2 !dbg !6480 {
  %2 = alloca %"class.std::__1::__function::__value_func"*, align 8
  store %"class.std::__1::__function::__value_func"* %0, %"class.std::__1::__function::__value_func"** %2, align 8, !tbaa !5701
  call void @llvm.dbg.declare(metadata %"class.std::__1::__function::__value_func"** %2, metadata !6482, metadata !DIExpression()), !dbg !6484
  %3 = load %"class.std::__1::__function::__value_func"*, %"class.std::__1::__function::__value_func"** %2, align 8
  %4 = getelementptr inbounds %"class.std::__1::__function::__value_func", %"class.std::__1::__function::__value_func"* %3, i32 0, i32 1, !dbg !6485
  %5 = load %"class.std::__1::__function::__base"*, %"class.std::__1::__function::__base"** %4, align 16, !dbg !6485, !tbaa !6487
  %6 = icmp eq %"class.std::__1::__function::__base"* %5, null, !dbg !6490
  br i1 %6, label %7, label %8, !dbg !6491

7:                                                ; preds = %1
  call void @_ZNSt3__125__throw_bad_function_callEv() #34, !dbg !6492
  unreachable, !dbg !6492

8:                                                ; preds = %1
  %9 = getelementptr inbounds %"class.std::__1::__function::__value_func", %"class.std::__1::__function::__value_func"* %3, i32 0, i32 1, !dbg !6493
  %10 = load %"class.std::__1::__function::__base"*, %"class.std::__1::__function::__base"** %9, align 16, !dbg !6493, !tbaa !6487
  %11 = bitcast %"class.std::__1::__function::__base"* %10 to void (%"class.std::__1::__function::__base"*)***, !dbg !6494
  %12 = load void (%"class.std::__1::__function::__base"*)**, void (%"class.std::__1::__function::__base"*)*** %11, align 8, !dbg !6494, !tbaa !6495
  %13 = getelementptr inbounds void (%"class.std::__1::__function::__base"*)*, void (%"class.std::__1::__function::__base"*)** %12, i64 6, !dbg !6494
  %14 = load void (%"class.std::__1::__function::__base"*)*, void (%"class.std::__1::__function::__base"*)** %13, align 8, !dbg !6494
  call void %14(%"class.std::__1::__function::__base"* noundef nonnull align 8 dereferenceable(8) %10), !dbg !6494
  ret void, !dbg !6497
}

; Function Attrs: inlinehint mustprogress noreturn ssp uwtable
define linkonce_odr hidden void @_ZNSt3__125__throw_bad_function_callEv() #14 !dbg !6498 {
  %1 = call i8* @__cxa_allocate_exception(i64 8) #32, !dbg !6499
  %2 = bitcast i8* %1 to %"class.std::__1::bad_function_call"*, !dbg !6499
  %3 = bitcast %"class.std::__1::bad_function_call"* %2 to i8*, !dbg !6500
  call void @llvm.memset.p0i8.i64(i8* align 16 %3, i8 0, i64 8, i1 false), !dbg !6500
  call void @_ZNSt3__117bad_function_callC1Ev(%"class.std::__1::bad_function_call"* noundef nonnull align 8 dereferenceable(8) %2) #32, !dbg !6500
  call void @__cxa_throw(i8* %1, i8* bitcast ({ i8*, i8*, i8* }* @_ZTINSt3__117bad_function_callE to i8*), i8* bitcast (void (%"class.std::__1::bad_function_call"*)* @_ZNSt3__117bad_function_callD1Ev to i8*)) #34, !dbg !6499
  unreachable, !dbg !6499
}

declare i8* @__cxa_allocate_exception(i64)

; Function Attrs: argmemonly nofree nounwind willreturn writeonly
declare void @llvm.memset.p0i8.i64(i8* nocapture writeonly, i8, i64, i1 immarg) #15

; Function Attrs: inlinehint nounwind ssp uwtable
define linkonce_odr void @_ZNSt3__117bad_function_callC1Ev(%"class.std::__1::bad_function_call"* noundef nonnull align 8 dereferenceable(8) %0) unnamed_addr #16 align 2 !dbg !6501 {
  %2 = alloca %"class.std::__1::bad_function_call"*, align 8
  store %"class.std::__1::bad_function_call"* %0, %"class.std::__1::bad_function_call"** %2, align 8, !tbaa !5701
  call void @llvm.dbg.declare(metadata %"class.std::__1::bad_function_call"** %2, metadata !6529, metadata !DIExpression()), !dbg !6531
  %3 = load %"class.std::__1::bad_function_call"*, %"class.std::__1::bad_function_call"** %2, align 8
  call void @_ZNSt3__117bad_function_callC2Ev(%"class.std::__1::bad_function_call"* noundef nonnull align 8 dereferenceable(8) %3) #32, !dbg !6532
  ret void, !dbg !6532
}

; Function Attrs: nounwind ssp uwtable
define linkonce_odr void @_ZNSt3__117bad_function_callD1Ev(%"class.std::__1::bad_function_call"* noundef nonnull align 8 dereferenceable(8) %0) unnamed_addr #5 align 2 !dbg !6533 {
  %2 = alloca %"class.std::__1::bad_function_call"*, align 8
  store %"class.std::__1::bad_function_call"* %0, %"class.std::__1::bad_function_call"** %2, align 8, !tbaa !5701
  call void @llvm.dbg.declare(metadata %"class.std::__1::bad_function_call"** %2, metadata !6535, metadata !DIExpression()), !dbg !6536
  %3 = load %"class.std::__1::bad_function_call"*, %"class.std::__1::bad_function_call"** %2, align 8
  call void @_ZNSt3__117bad_function_callD2Ev(%"class.std::__1::bad_function_call"* noundef nonnull align 8 dereferenceable(8) %3) #32, !dbg !6537
  ret void, !dbg !6538
}

declare void @__cxa_throw(i8*, i8*, i8*)

; Function Attrs: inlinehint nounwind ssp uwtable
define linkonce_odr void @_ZNSt3__117bad_function_callC2Ev(%"class.std::__1::bad_function_call"* noundef nonnull align 8 dereferenceable(8) %0) unnamed_addr #16 align 2 !dbg !6539 {
  %2 = alloca %"class.std::__1::bad_function_call"*, align 8
  store %"class.std::__1::bad_function_call"* %0, %"class.std::__1::bad_function_call"** %2, align 8, !tbaa !5701
  call void @llvm.dbg.declare(metadata %"class.std::__1::bad_function_call"** %2, metadata !6541, metadata !DIExpression()), !dbg !6542
  %3 = load %"class.std::__1::bad_function_call"*, %"class.std::__1::bad_function_call"** %2, align 8
  %4 = bitcast %"class.std::__1::bad_function_call"* %3 to %"class.std::exception"*, !dbg !6543
  call void @_ZNSt9exceptionC2Ev(%"class.std::exception"* noundef nonnull align 8 dereferenceable(8) %4) #32, !dbg !6543
  %5 = bitcast %"class.std::__1::bad_function_call"* %3 to i32 (...)***, !dbg !6543
  store i32 (...)** bitcast (i8** getelementptr inbounds ({ [5 x i8*] }, { [5 x i8*] }* @_ZTVNSt3__117bad_function_callE, i32 0, inrange i32 0, i32 2) to i32 (...)**), i32 (...)*** %5, align 8, !dbg !6543, !tbaa !6495
  ret void, !dbg !6543
}

; Function Attrs: nounwind ssp uwtable
define linkonce_odr hidden void @_ZNSt9exceptionC2Ev(%"class.std::exception"* noundef nonnull align 8 dereferenceable(8) %0) unnamed_addr #5 align 2 !dbg !6544 {
  %2 = alloca %"class.std::exception"*, align 8
  store %"class.std::exception"* %0, %"class.std::exception"** %2, align 8, !tbaa !5701
  call void @llvm.dbg.declare(metadata %"class.std::exception"** %2, metadata !6546, metadata !DIExpression()), !dbg !6548
  %3 = load %"class.std::exception"*, %"class.std::exception"** %2, align 8
  %4 = bitcast %"class.std::exception"* %3 to i32 (...)***, !dbg !6549
  store i32 (...)** bitcast (i8** getelementptr inbounds ({ [5 x i8*] }, { [5 x i8*] }* @_ZTVSt9exception, i32 0, inrange i32 0, i32 2) to i32 (...)**), i32 (...)*** %4, align 8, !dbg !6549, !tbaa !6495
  ret void, !dbg !6550
}

; Function Attrs: nounwind ssp uwtable
define linkonce_odr void @_ZNSt3__117bad_function_callD0Ev(%"class.std::__1::bad_function_call"* noundef nonnull align 8 dereferenceable(8) %0) unnamed_addr #5 align 2 !dbg !6551 {
  %2 = alloca %"class.std::__1::bad_function_call"*, align 8
  store %"class.std::__1::bad_function_call"* %0, %"class.std::__1::bad_function_call"** %2, align 8, !tbaa !5701
  call void @llvm.dbg.declare(metadata %"class.std::__1::bad_function_call"** %2, metadata !6553, metadata !DIExpression()), !dbg !6554
  %3 = load %"class.std::__1::bad_function_call"*, %"class.std::__1::bad_function_call"** %2, align 8
  call void @_ZNSt3__117bad_function_callD1Ev(%"class.std::__1::bad_function_call"* noundef nonnull align 8 dereferenceable(8) %3) #32, !dbg !6555
  %4 = bitcast %"class.std::__1::bad_function_call"* %3 to i8*, !dbg !6555
  call void @_ZdlPv(i8* noundef %4) #35, !dbg !6555
  ret void, !dbg !6556
}

; Function Attrs: nounwind
declare noundef i8* @_ZNKSt9exception4whatEv(%"class.std::exception"* noundef nonnull align 8 dereferenceable(8)) unnamed_addr #13

; Function Attrs: nounwind
declare void @_ZNSt9exceptionD1Ev(%"class.std::exception"* noundef nonnull align 8 dereferenceable(8)) unnamed_addr #13

; Function Attrs: nounwind
declare void @_ZNSt9exceptionD0Ev(%"class.std::exception"* noundef nonnull align 8 dereferenceable(8)) unnamed_addr #13

; Function Attrs: nobuiltin nounwind
declare void @_ZdlPv(i8* noundef) #17

; Function Attrs: nounwind ssp uwtable
define linkonce_odr void @_ZNSt3__117bad_function_callD2Ev(%"class.std::__1::bad_function_call"* noundef nonnull align 8 dereferenceable(8) %0) unnamed_addr #5 align 2 !dbg !6557 {
  %2 = alloca %"class.std::__1::bad_function_call"*, align 8
  store %"class.std::__1::bad_function_call"* %0, %"class.std::__1::bad_function_call"** %2, align 8, !tbaa !5701
  call void @llvm.dbg.declare(metadata %"class.std::__1::bad_function_call"** %2, metadata !6559, metadata !DIExpression()), !dbg !6560
  %3 = load %"class.std::__1::bad_function_call"*, %"class.std::__1::bad_function_call"** %2, align 8
  %4 = bitcast %"class.std::__1::bad_function_call"* %3 to %"class.std::exception"*, !dbg !6561
  call void @_ZNSt9exceptionD2Ev(%"class.std::exception"* noundef nonnull align 8 dereferenceable(8) %4) #32, !dbg !6561
  ret void, !dbg !6563
}

; Function Attrs: nounwind
declare void @_ZNSt9exceptionD2Ev(%"class.std::exception"* noundef nonnull align 8 dereferenceable(8)) unnamed_addr #13

; Function Attrs: inlinehint mustprogress ssp uwtable
define linkonce_odr hidden double @_ZNSt3__16chrono13duration_castINS0_8durationIdNS_5ratioILl1ELl1EEEEExNS3_ILl1ELl1000000000EEEEENS_9enable_ifIXsr13__is_durationIT_EE5valueES8_E4typeERKNS2_IT0_T1_EE(%"class.std::__1::chrono::duration"* noundef nonnull align 8 dereferenceable(8) %0) #4 !dbg !6564 {
  %2 = alloca %"class.std::__1::chrono::duration.3", align 8
  %3 = alloca %"class.std::__1::chrono::duration"*, align 8
  %4 = alloca %"struct.std::__1::chrono::__duration_cast", align 1
  store %"class.std::__1::chrono::duration"* %0, %"class.std::__1::chrono::duration"** %3, align 8, !tbaa !5701
  call void @llvm.dbg.declare(metadata %"class.std::__1::chrono::duration"** %3, metadata !6572, metadata !DIExpression()), !dbg !6574
  %5 = bitcast %"struct.std::__1::chrono::__duration_cast"* %4 to i8*, !dbg !6575
  call void @llvm.lifetime.start.p0i8(i64 1, i8* %5) #32, !dbg !6575
  %6 = load %"class.std::__1::chrono::duration"*, %"class.std::__1::chrono::duration"** %3, align 8, !dbg !6576, !tbaa !5701
  %7 = call double @_ZNKSt3__16chrono15__duration_castINS0_8durationIxNS_5ratioILl1ELl1000000000EEEEENS2_IdNS3_ILl1ELl1EEEEES4_Lb1ELb0EEclERKS5_(%"struct.std::__1::chrono::__duration_cast"* noundef nonnull align 1 dereferenceable(1) %4, %"class.std::__1::chrono::duration"* noundef nonnull align 8 dereferenceable(8) %6), !dbg !6575
  %8 = getelementptr inbounds %"class.std::__1::chrono::duration.3", %"class.std::__1::chrono::duration.3"* %2, i32 0, i32 0, !dbg !6575
  store double %7, double* %8, align 8, !dbg !6575
  %9 = bitcast %"struct.std::__1::chrono::__duration_cast"* %4 to i8*, !dbg !6577
  call void @llvm.lifetime.end.p0i8(i64 1, i8* %9) #32, !dbg !6577
  %10 = getelementptr inbounds %"class.std::__1::chrono::duration.3", %"class.std::__1::chrono::duration.3"* %2, i32 0, i32 0, !dbg !6577
  %11 = load double, double* %10, align 8, !dbg !6577
  ret double %11, !dbg !6577
}

; Function Attrs: inlinehint mustprogress ssp uwtable
define linkonce_odr hidden i64 @_ZNSt3__16chronomiINS0_12steady_clockENS0_8durationIxNS_5ratioILl1ELl1000000000EEEEES6_EENS_11common_typeIJT0_T1_EE4typeERKNS0_10time_pointIT_S8_EERKNSC_ISD_S9_EE(%"class.std::__1::chrono::time_point"* noundef nonnull align 8 dereferenceable(8) %0, %"class.std::__1::chrono::time_point"* noundef nonnull align 8 dereferenceable(8) %1) #4 !dbg !6578 {
  %3 = alloca %"class.std::__1::chrono::duration", align 8
  %4 = alloca %"class.std::__1::chrono::time_point"*, align 8
  %5 = alloca %"class.std::__1::chrono::time_point"*, align 8
  %6 = alloca %"class.std::__1::chrono::duration", align 8
  %7 = alloca %"class.std::__1::chrono::duration", align 8
  store %"class.std::__1::chrono::time_point"* %0, %"class.std::__1::chrono::time_point"** %4, align 8, !tbaa !5701
  call void @llvm.dbg.declare(metadata %"class.std::__1::chrono::time_point"** %4, metadata !6583, metadata !DIExpression()), !dbg !6588
  store %"class.std::__1::chrono::time_point"* %1, %"class.std::__1::chrono::time_point"** %5, align 8, !tbaa !5701
  call void @llvm.dbg.declare(metadata %"class.std::__1::chrono::time_point"** %5, metadata !6584, metadata !DIExpression()), !dbg !6589
  %8 = bitcast %"class.std::__1::chrono::duration"* %6 to i8*, !dbg !6590
  call void @llvm.lifetime.start.p0i8(i64 8, i8* %8) #32, !dbg !6590
  %9 = load %"class.std::__1::chrono::time_point"*, %"class.std::__1::chrono::time_point"** %4, align 8, !dbg !6590, !tbaa !5701
  %10 = call i64 @_ZNKSt3__16chrono10time_pointINS0_12steady_clockENS0_8durationIxNS_5ratioILl1ELl1000000000EEEEEE16time_since_epochEv(%"class.std::__1::chrono::time_point"* noundef nonnull align 8 dereferenceable(8) %9), !dbg !6591
  %11 = getelementptr inbounds %"class.std::__1::chrono::duration", %"class.std::__1::chrono::duration"* %6, i32 0, i32 0, !dbg !6591
  store i64 %10, i64* %11, align 8, !dbg !6591
  %12 = bitcast %"class.std::__1::chrono::duration"* %7 to i8*, !dbg !6592
  call void @llvm.lifetime.start.p0i8(i64 8, i8* %12) #32, !dbg !6592
  %13 = load %"class.std::__1::chrono::time_point"*, %"class.std::__1::chrono::time_point"** %5, align 8, !dbg !6592, !tbaa !5701
  %14 = call i64 @_ZNKSt3__16chrono10time_pointINS0_12steady_clockENS0_8durationIxNS_5ratioILl1ELl1000000000EEEEEE16time_since_epochEv(%"class.std::__1::chrono::time_point"* noundef nonnull align 8 dereferenceable(8) %13), !dbg !6593
  %15 = getelementptr inbounds %"class.std::__1::chrono::duration", %"class.std::__1::chrono::duration"* %7, i32 0, i32 0, !dbg !6593
  store i64 %14, i64* %15, align 8, !dbg !6593
  %16 = call i64 @_ZNSt3__16chronomiIxNS_5ratioILl1ELl1000000000EEExS3_EENS_11common_typeIJNS0_8durationIT_T0_EENS5_IT1_T2_EEEE4typeERKS8_RKSB_(%"class.std::__1::chrono::duration"* noundef nonnull align 8 dereferenceable(8) %6, %"class.std::__1::chrono::duration"* noundef nonnull align 8 dereferenceable(8) %7), !dbg !6594
  %17 = getelementptr inbounds %"class.std::__1::chrono::duration", %"class.std::__1::chrono::duration"* %3, i32 0, i32 0, !dbg !6594
  store i64 %16, i64* %17, align 8, !dbg !6594
  %18 = bitcast %"class.std::__1::chrono::duration"* %7 to i8*, !dbg !6595
  call void @llvm.lifetime.end.p0i8(i64 8, i8* %18) #32, !dbg !6595
  %19 = bitcast %"class.std::__1::chrono::duration"* %6 to i8*, !dbg !6595
  call void @llvm.lifetime.end.p0i8(i64 8, i8* %19) #32, !dbg !6595
  %20 = getelementptr inbounds %"class.std::__1::chrono::duration", %"class.std::__1::chrono::duration"* %3, i32 0, i32 0, !dbg !6595
  %21 = load i64, i64* %20, align 8, !dbg !6595
  ret i64 %21, !dbg !6595
}

; Function Attrs: mustprogress nounwind ssp uwtable
define linkonce_odr hidden noundef double @_ZNKSt3__16chrono8durationIdNS_5ratioILl1ELl1EEEE5countEv(%"class.std::__1::chrono::duration.3"* noundef nonnull align 8 dereferenceable(8) %0) #7 align 2 !dbg !6596 {
  %2 = alloca %"class.std::__1::chrono::duration.3"*, align 8
  store %"class.std::__1::chrono::duration.3"* %0, %"class.std::__1::chrono::duration.3"** %2, align 8, !tbaa !5701
  call void @llvm.dbg.declare(metadata %"class.std::__1::chrono::duration.3"** %2, metadata !6598, metadata !DIExpression()), !dbg !6600
  %3 = load %"class.std::__1::chrono::duration.3"*, %"class.std::__1::chrono::duration.3"** %2, align 8
  %4 = getelementptr inbounds %"class.std::__1::chrono::duration.3", %"class.std::__1::chrono::duration.3"* %3, i32 0, i32 0, !dbg !6601
  %5 = load double, double* %4, align 8, !dbg !6601, !tbaa !6602
  ret double %5, !dbg !6604
}

; Function Attrs: mustprogress ssp uwtable
define linkonce_odr hidden double @_ZNKSt3__16chrono15__duration_castINS0_8durationIxNS_5ratioILl1ELl1000000000EEEEENS2_IdNS3_ILl1ELl1EEEEES4_Lb1ELb0EEclERKS5_(%"struct.std::__1::chrono::__duration_cast"* noundef nonnull align 1 dereferenceable(1) %0, %"class.std::__1::chrono::duration"* noundef nonnull align 8 dereferenceable(8) %1) #0 align 2 !dbg !193 {
  %3 = alloca %"class.std::__1::chrono::duration.3", align 8
  %4 = alloca %"struct.std::__1::chrono::__duration_cast"*, align 8
  %5 = alloca %"class.std::__1::chrono::duration"*, align 8
  %6 = alloca double, align 8
  store %"struct.std::__1::chrono::__duration_cast"* %0, %"struct.std::__1::chrono::__duration_cast"** %4, align 8, !tbaa !5701
  call void @llvm.dbg.declare(metadata %"struct.std::__1::chrono::__duration_cast"** %4, metadata !272, metadata !DIExpression()), !dbg !6605
  store %"class.std::__1::chrono::duration"* %1, %"class.std::__1::chrono::duration"** %5, align 8, !tbaa !5701
  call void @llvm.dbg.declare(metadata %"class.std::__1::chrono::duration"** %5, metadata !274, metadata !DIExpression()), !dbg !6606
  %7 = load %"struct.std::__1::chrono::__duration_cast"*, %"struct.std::__1::chrono::__duration_cast"** %4, align 8
  %8 = bitcast double* %6 to i8*, !dbg !6607
  call void @llvm.lifetime.start.p0i8(i64 8, i8* %8) #32, !dbg !6607
  %9 = load %"class.std::__1::chrono::duration"*, %"class.std::__1::chrono::duration"** %5, align 8, !dbg !6608, !tbaa !5701
  %10 = call noundef i64 @_ZNKSt3__16chrono8durationIxNS_5ratioILl1ELl1000000000EEEE5countEv(%"class.std::__1::chrono::duration"* noundef nonnull align 8 dereferenceable(8) %9), !dbg !6609
  %11 = sitofp i64 %10 to double, !dbg !6608
  %12 = fdiv double %11, 1.000000e+09, !dbg !6610
  store double %12, double* %6, align 8, !dbg !6607, !tbaa !5707
  call void @_ZNSt3__16chrono8durationIdNS_5ratioILl1ELl1EEEEC1IdEERKT_PNS_9enable_ifIXaasr14is_convertibleIS8_dEE5valueooL_ZNS_17integral_constantIbLb1EE5valueEEntsr23treat_as_floating_pointIS6_EE5valueEvE4typeE(%"class.std::__1::chrono::duration.3"* noundef nonnull align 8 dereferenceable(8) %3, double* noundef nonnull align 8 dereferenceable(8) %6, i8* noundef null), !dbg !6611
  %13 = bitcast double* %6 to i8*, !dbg !6612
  call void @llvm.lifetime.end.p0i8(i64 8, i8* %13) #32, !dbg !6612
  %14 = getelementptr inbounds %"class.std::__1::chrono::duration.3", %"class.std::__1::chrono::duration.3"* %3, i32 0, i32 0, !dbg !6612
  %15 = load double, double* %14, align 8, !dbg !6612
  ret double %15, !dbg !6612
}

; Function Attrs: mustprogress nounwind ssp uwtable
define linkonce_odr hidden noundef i64 @_ZNKSt3__16chrono8durationIxNS_5ratioILl1ELl1000000000EEEE5countEv(%"class.std::__1::chrono::duration"* noundef nonnull align 8 dereferenceable(8) %0) #7 align 2 !dbg !6613 {
  %2 = alloca %"class.std::__1::chrono::duration"*, align 8
  store %"class.std::__1::chrono::duration"* %0, %"class.std::__1::chrono::duration"** %2, align 8, !tbaa !5701
  call void @llvm.dbg.declare(metadata %"class.std::__1::chrono::duration"** %2, metadata !6615, metadata !DIExpression()), !dbg !6617
  %3 = load %"class.std::__1::chrono::duration"*, %"class.std::__1::chrono::duration"** %2, align 8
  %4 = getelementptr inbounds %"class.std::__1::chrono::duration", %"class.std::__1::chrono::duration"* %3, i32 0, i32 0, !dbg !6618
  %5 = load i64, i64* %4, align 8, !dbg !6618, !tbaa !6619
  ret i64 %5, !dbg !6621
}

; Function Attrs: ssp uwtable
define linkonce_odr hidden void @_ZNSt3__16chrono8durationIdNS_5ratioILl1ELl1EEEEC1IdEERKT_PNS_9enable_ifIXaasr14is_convertibleIS8_dEE5valueooL_ZNS_17integral_constantIbLb1EE5valueEEntsr23treat_as_floating_pointIS6_EE5valueEvE4typeE(%"class.std::__1::chrono::duration.3"* noundef nonnull align 8 dereferenceable(8) %0, double* noundef nonnull align 8 dereferenceable(8) %1, i8* noundef %2) unnamed_addr #3 align 2 !dbg !6622 {
  %4 = alloca %"class.std::__1::chrono::duration.3"*, align 8
  %5 = alloca double*, align 8
  %6 = alloca i8*, align 8
  store %"class.std::__1::chrono::duration.3"* %0, %"class.std::__1::chrono::duration.3"** %4, align 8, !tbaa !5701
  call void @llvm.dbg.declare(metadata %"class.std::__1::chrono::duration.3"** %4, metadata !6634, metadata !DIExpression()), !dbg !6638
  store double* %1, double** %5, align 8, !tbaa !5701
  call void @llvm.dbg.declare(metadata double** %5, metadata !6636, metadata !DIExpression()), !dbg !6639
  store i8* %2, i8** %6, align 8, !tbaa !5701
  call void @llvm.dbg.declare(metadata i8** %6, metadata !6637, metadata !DIExpression()), !dbg !6640
  %7 = load %"class.std::__1::chrono::duration.3"*, %"class.std::__1::chrono::duration.3"** %4, align 8
  %8 = load double*, double** %5, align 8, !dbg !6641
  %9 = load i8*, i8** %6, align 8, !dbg !6641, !tbaa !5701
  call void @_ZNSt3__16chrono8durationIdNS_5ratioILl1ELl1EEEEC2IdEERKT_PNS_9enable_ifIXaasr14is_convertibleIS8_dEE5valueooL_ZNS_17integral_constantIbLb1EE5valueEEntsr23treat_as_floating_pointIS6_EE5valueEvE4typeE(%"class.std::__1::chrono::duration.3"* noundef nonnull align 8 dereferenceable(8) %7, double* noundef nonnull align 8 dereferenceable(8) %8, i8* noundef %9), !dbg !6641
  ret void, !dbg !6642
}

; Function Attrs: nounwind ssp uwtable
define linkonce_odr hidden void @_ZNSt3__16chrono8durationIdNS_5ratioILl1ELl1EEEEC2IdEERKT_PNS_9enable_ifIXaasr14is_convertibleIS8_dEE5valueooL_ZNS_17integral_constantIbLb1EE5valueEEntsr23treat_as_floating_pointIS6_EE5valueEvE4typeE(%"class.std::__1::chrono::duration.3"* noundef nonnull align 8 dereferenceable(8) %0, double* noundef nonnull align 8 dereferenceable(8) %1, i8* noundef %2) unnamed_addr #5 align 2 !dbg !6643 {
  %4 = alloca %"class.std::__1::chrono::duration.3"*, align 8
  %5 = alloca double*, align 8
  %6 = alloca i8*, align 8
  store %"class.std::__1::chrono::duration.3"* %0, %"class.std::__1::chrono::duration.3"** %4, align 8, !tbaa !5701
  call void @llvm.dbg.declare(metadata %"class.std::__1::chrono::duration.3"** %4, metadata !6645, metadata !DIExpression()), !dbg !6648
  store double* %1, double** %5, align 8, !tbaa !5701
  call void @llvm.dbg.declare(metadata double** %5, metadata !6646, metadata !DIExpression()), !dbg !6649
  store i8* %2, i8** %6, align 8, !tbaa !5701
  call void @llvm.dbg.declare(metadata i8** %6, metadata !6647, metadata !DIExpression()), !dbg !6650
  %7 = load %"class.std::__1::chrono::duration.3"*, %"class.std::__1::chrono::duration.3"** %4, align 8
  %8 = getelementptr inbounds %"class.std::__1::chrono::duration.3", %"class.std::__1::chrono::duration.3"* %7, i32 0, i32 0, !dbg !6651
  %9 = load double*, double** %5, align 8, !dbg !6652, !tbaa !5701
  %10 = load double, double* %9, align 8, !dbg !6652, !tbaa !5707
  store double %10, double* %8, align 8, !dbg !6651, !tbaa !6602
  ret void, !dbg !6653
}

; Function Attrs: inlinehint mustprogress ssp uwtable
define linkonce_odr hidden i64 @_ZNSt3__16chronomiIxNS_5ratioILl1ELl1000000000EEExS3_EENS_11common_typeIJNS0_8durationIT_T0_EENS5_IT1_T2_EEEE4typeERKS8_RKSB_(%"class.std::__1::chrono::duration"* noundef nonnull align 8 dereferenceable(8) %0, %"class.std::__1::chrono::duration"* noundef nonnull align 8 dereferenceable(8) %1) #4 !dbg !290 {
  %3 = alloca %"class.std::__1::chrono::duration", align 8
  %4 = alloca %"class.std::__1::chrono::duration"*, align 8
  %5 = alloca %"class.std::__1::chrono::duration"*, align 8
  %6 = alloca i64, align 8
  %7 = alloca %"class.std::__1::chrono::duration", align 8
  %8 = alloca %"class.std::__1::chrono::duration", align 8
  store %"class.std::__1::chrono::duration"* %0, %"class.std::__1::chrono::duration"** %4, align 8, !tbaa !5701
  call void @llvm.dbg.declare(metadata %"class.std::__1::chrono::duration"** %4, metadata !294, metadata !DIExpression()), !dbg !6654
  store %"class.std::__1::chrono::duration"* %1, %"class.std::__1::chrono::duration"** %5, align 8, !tbaa !5701
  call void @llvm.dbg.declare(metadata %"class.std::__1::chrono::duration"** %5, metadata !295, metadata !DIExpression()), !dbg !6655
  %9 = bitcast i64* %6 to i8*, !dbg !6656
  call void @llvm.lifetime.start.p0i8(i64 8, i8* %9) #32, !dbg !6656
  %10 = bitcast %"class.std::__1::chrono::duration"* %7 to i8*, !dbg !6656
  call void @llvm.lifetime.start.p0i8(i64 8, i8* %10) #32, !dbg !6656
  %11 = load %"class.std::__1::chrono::duration"*, %"class.std::__1::chrono::duration"** %4, align 8, !dbg !6657, !tbaa !5701
  %12 = bitcast %"class.std::__1::chrono::duration"* %7 to i8*, !dbg !6656
  %13 = bitcast %"class.std::__1::chrono::duration"* %11 to i8*, !dbg !6656
  call void @llvm.memcpy.p0i8.p0i8.i64(i8* align 8 %12, i8* align 8 %13, i64 8, i1 false), !dbg !6656, !tbaa.struct !5949
  %14 = call noundef i64 @_ZNKSt3__16chrono8durationIxNS_5ratioILl1ELl1000000000EEEE5countEv(%"class.std::__1::chrono::duration"* noundef nonnull align 8 dereferenceable(8) %7), !dbg !6658
  %15 = bitcast %"class.std::__1::chrono::duration"* %8 to i8*, !dbg !6659
  call void @llvm.lifetime.start.p0i8(i64 8, i8* %15) #32, !dbg !6659
  %16 = load %"class.std::__1::chrono::duration"*, %"class.std::__1::chrono::duration"** %5, align 8, !dbg !6660, !tbaa !5701
  %17 = bitcast %"class.std::__1::chrono::duration"* %8 to i8*, !dbg !6659
  %18 = bitcast %"class.std::__1::chrono::duration"* %16 to i8*, !dbg !6659
  call void @llvm.memcpy.p0i8.p0i8.i64(i8* align 8 %17, i8* align 8 %18, i64 8, i1 false), !dbg !6659, !tbaa.struct !5949
  %19 = call noundef i64 @_ZNKSt3__16chrono8durationIxNS_5ratioILl1ELl1000000000EEEE5countEv(%"class.std::__1::chrono::duration"* noundef nonnull align 8 dereferenceable(8) %8), !dbg !6661
  %20 = sub nsw i64 %14, %19, !dbg !6662
  store i64 %20, i64* %6, align 8, !dbg !6656, !tbaa !5910
  call void @_ZNSt3__16chrono8durationIxNS_5ratioILl1ELl1000000000EEEEC1IxEERKT_PNS_9enable_ifIXaasr14is_convertibleIS8_xEE5valueooL_ZNS_17integral_constantIbLb0EE5valueEEntsr23treat_as_floating_pointIS6_EE5valueEvE4typeE(%"class.std::__1::chrono::duration"* noundef nonnull align 8 dereferenceable(8) %3, i64* noundef nonnull align 8 dereferenceable(8) %6, i8* noundef null), !dbg !6663
  %21 = bitcast %"class.std::__1::chrono::duration"* %8 to i8*, !dbg !6664
  call void @llvm.lifetime.end.p0i8(i64 8, i8* %21) #32, !dbg !6664
  %22 = bitcast %"class.std::__1::chrono::duration"* %7 to i8*, !dbg !6664
  call void @llvm.lifetime.end.p0i8(i64 8, i8* %22) #32, !dbg !6664
  %23 = bitcast i64* %6 to i8*, !dbg !6664
  call void @llvm.lifetime.end.p0i8(i64 8, i8* %23) #32, !dbg !6664
  %24 = getelementptr inbounds %"class.std::__1::chrono::duration", %"class.std::__1::chrono::duration"* %3, i32 0, i32 0, !dbg !6664
  %25 = load i64, i64* %24, align 8, !dbg !6664
  ret i64 %25, !dbg !6664
}

; Function Attrs: mustprogress nounwind ssp uwtable
define linkonce_odr hidden i64 @_ZNKSt3__16chrono10time_pointINS0_12steady_clockENS0_8durationIxNS_5ratioILl1ELl1000000000EEEEEE16time_since_epochEv(%"class.std::__1::chrono::time_point"* noundef nonnull align 8 dereferenceable(8) %0) #7 align 2 !dbg !6665 {
  %2 = alloca %"class.std::__1::chrono::duration", align 8
  %3 = alloca %"class.std::__1::chrono::time_point"*, align 8
  store %"class.std::__1::chrono::time_point"* %0, %"class.std::__1::chrono::time_point"** %3, align 8, !tbaa !5701
  call void @llvm.dbg.declare(metadata %"class.std::__1::chrono::time_point"** %3, metadata !6667, metadata !DIExpression()), !dbg !6669
  %4 = load %"class.std::__1::chrono::time_point"*, %"class.std::__1::chrono::time_point"** %3, align 8
  %5 = getelementptr inbounds %"class.std::__1::chrono::time_point", %"class.std::__1::chrono::time_point"* %4, i32 0, i32 0, !dbg !6670
  %6 = bitcast %"class.std::__1::chrono::duration"* %2 to i8*, !dbg !6670
  %7 = bitcast %"class.std::__1::chrono::duration"* %5 to i8*, !dbg !6670
  call void @llvm.memcpy.p0i8.p0i8.i64(i8* align 8 %6, i8* align 8 %7, i64 8, i1 false), !dbg !6670, !tbaa.struct !5949
  %8 = getelementptr inbounds %"class.std::__1::chrono::duration", %"class.std::__1::chrono::duration"* %2, i32 0, i32 0, !dbg !6671
  %9 = load i64, i64* %8, align 8, !dbg !6671
  ret i64 %9, !dbg !6671
}

; Function Attrs: ssp uwtable
define linkonce_odr hidden void @_ZNSt3__16chrono8durationIxNS_5ratioILl1ELl1000000000EEEEC1IxEERKT_PNS_9enable_ifIXaasr14is_convertibleIS8_xEE5valueooL_ZNS_17integral_constantIbLb0EE5valueEEntsr23treat_as_floating_pointIS6_EE5valueEvE4typeE(%"class.std::__1::chrono::duration"* noundef nonnull align 8 dereferenceable(8) %0, i64* noundef nonnull align 8 dereferenceable(8) %1, i8* noundef %2) unnamed_addr #3 align 2 !dbg !6672 {
  %4 = alloca %"class.std::__1::chrono::duration"*, align 8
  %5 = alloca i64*, align 8
  %6 = alloca i8*, align 8
  store %"class.std::__1::chrono::duration"* %0, %"class.std::__1::chrono::duration"** %4, align 8, !tbaa !5701
  call void @llvm.dbg.declare(metadata %"class.std::__1::chrono::duration"** %4, metadata !6680, metadata !DIExpression()), !dbg !6684
  store i64* %1, i64** %5, align 8, !tbaa !5701
  call void @llvm.dbg.declare(metadata i64** %5, metadata !6682, metadata !DIExpression()), !dbg !6685
  store i8* %2, i8** %6, align 8, !tbaa !5701
  call void @llvm.dbg.declare(metadata i8** %6, metadata !6683, metadata !DIExpression()), !dbg !6686
  %7 = load %"class.std::__1::chrono::duration"*, %"class.std::__1::chrono::duration"** %4, align 8
  %8 = load i64*, i64** %5, align 8, !dbg !6687
  %9 = load i8*, i8** %6, align 8, !dbg !6687, !tbaa !5701
  call void @_ZNSt3__16chrono8durationIxNS_5ratioILl1ELl1000000000EEEEC2IxEERKT_PNS_9enable_ifIXaasr14is_convertibleIS8_xEE5valueooL_ZNS_17integral_constantIbLb0EE5valueEEntsr23treat_as_floating_pointIS6_EE5valueEvE4typeE(%"class.std::__1::chrono::duration"* noundef nonnull align 8 dereferenceable(8) %7, i64* noundef nonnull align 8 dereferenceable(8) %8, i8* noundef %9), !dbg !6687
  ret void, !dbg !6688
}

; Function Attrs: nounwind ssp uwtable
define linkonce_odr hidden void @_ZNSt3__16chrono8durationIxNS_5ratioILl1ELl1000000000EEEEC2IxEERKT_PNS_9enable_ifIXaasr14is_convertibleIS8_xEE5valueooL_ZNS_17integral_constantIbLb0EE5valueEEntsr23treat_as_floating_pointIS6_EE5valueEvE4typeE(%"class.std::__1::chrono::duration"* noundef nonnull align 8 dereferenceable(8) %0, i64* noundef nonnull align 8 dereferenceable(8) %1, i8* noundef %2) unnamed_addr #5 align 2 !dbg !6689 {
  %4 = alloca %"class.std::__1::chrono::duration"*, align 8
  %5 = alloca i64*, align 8
  %6 = alloca i8*, align 8
  store %"class.std::__1::chrono::duration"* %0, %"class.std::__1::chrono::duration"** %4, align 8, !tbaa !5701
  call void @llvm.dbg.declare(metadata %"class.std::__1::chrono::duration"** %4, metadata !6691, metadata !DIExpression()), !dbg !6694
  store i64* %1, i64** %5, align 8, !tbaa !5701
  call void @llvm.dbg.declare(metadata i64** %5, metadata !6692, metadata !DIExpression()), !dbg !6695
  store i8* %2, i8** %6, align 8, !tbaa !5701
  call void @llvm.dbg.declare(metadata i8** %6, metadata !6693, metadata !DIExpression()), !dbg !6696
  %7 = load %"class.std::__1::chrono::duration"*, %"class.std::__1::chrono::duration"** %4, align 8
  %8 = getelementptr inbounds %"class.std::__1::chrono::duration", %"class.std::__1::chrono::duration"* %7, i32 0, i32 0, !dbg !6697
  %9 = load i64*, i64** %5, align 8, !dbg !6698, !tbaa !5701
  %10 = load i64, i64* %9, align 8, !dbg !6698, !tbaa !5910
  store i64 %10, i64* %8, align 8, !dbg !6697, !tbaa !6619
  ret void, !dbg !6699
}

; Function Attrs: inlinehint mustprogress ssp uwtable
define linkonce_odr hidden noundef nonnull align 8 dereferenceable(8) double* @_ZNSt3__13minIdNS_6__lessIddEEEERKT_S5_S5_T0_(double* noundef nonnull align 8 dereferenceable(8) %0, double* noundef nonnull align 8 dereferenceable(8) %1) #4 !dbg !6700 {
  %3 = alloca %"struct.std::__1::__less", align 1
  %4 = alloca double*, align 8
  %5 = alloca double*, align 8
  store double* %0, double** %4, align 8, !tbaa !5701
  call void @llvm.dbg.declare(metadata double** %4, metadata !6715, metadata !DIExpression()), !dbg !6720
  store double* %1, double** %5, align 8, !tbaa !5701
  call void @llvm.dbg.declare(metadata double** %5, metadata !6716, metadata !DIExpression()), !dbg !6721
  call void @llvm.dbg.declare(metadata %"struct.std::__1::__less"* %3, metadata !6717, metadata !DIExpression()), !dbg !6722
  %6 = load double*, double** %5, align 8, !dbg !6723, !tbaa !5701
  %7 = load double*, double** %4, align 8, !dbg !6724, !tbaa !5701
  %8 = call noundef zeroext i1 @_ZNKSt3__16__lessIddEclERKdS3_(%"struct.std::__1::__less"* noundef nonnull align 1 dereferenceable(1) %3, double* noundef nonnull align 8 dereferenceable(8) %6, double* noundef nonnull align 8 dereferenceable(8) %7), !dbg !6725
  br i1 %8, label %9, label %11, !dbg !6725

9:                                                ; preds = %2
  %10 = load double*, double** %5, align 8, !dbg !6726, !tbaa !5701
  br label %13, !dbg !6725

11:                                               ; preds = %2
  %12 = load double*, double** %4, align 8, !dbg !6727, !tbaa !5701
  br label %13, !dbg !6725

13:                                               ; preds = %11, %9
  %14 = phi double* [ %10, %9 ], [ %12, %11 ], !dbg !6725
  ret double* %14, !dbg !6728
}

; Function Attrs: mustprogress nounwind ssp uwtable
define linkonce_odr hidden noundef zeroext i1 @_ZNKSt3__16__lessIddEclERKdS3_(%"struct.std::__1::__less"* noundef nonnull align 1 dereferenceable(1) %0, double* noundef nonnull align 8 dereferenceable(8) %1, double* noundef nonnull align 8 dereferenceable(8) %2) #7 align 2 !dbg !6729 {
  %4 = alloca %"struct.std::__1::__less"*, align 8
  %5 = alloca double*, align 8
  %6 = alloca double*, align 8
  store %"struct.std::__1::__less"* %0, %"struct.std::__1::__less"** %4, align 8, !tbaa !5701
  call void @llvm.dbg.declare(metadata %"struct.std::__1::__less"** %4, metadata !6731, metadata !DIExpression()), !dbg !6735
  store double* %1, double** %5, align 8, !tbaa !5701
  call void @llvm.dbg.declare(metadata double** %5, metadata !6733, metadata !DIExpression()), !dbg !6736
  store double* %2, double** %6, align 8, !tbaa !5701
  call void @llvm.dbg.declare(metadata double** %6, metadata !6734, metadata !DIExpression()), !dbg !6737
  %7 = load %"struct.std::__1::__less"*, %"struct.std::__1::__less"** %4, align 8
  %8 = load double*, double** %5, align 8, !dbg !6738, !tbaa !5701
  %9 = load double, double* %8, align 8, !dbg !6738, !tbaa !5707
  %10 = load double*, double** %6, align 8, !dbg !6739, !tbaa !5701
  %11 = load double, double* %10, align 8, !dbg !6739, !tbaa !5707
  %12 = fcmp olt double %9, %11, !dbg !6740
  ret i1 %12, !dbg !6741
}

; Function Attrs: inlinehint mustprogress ssp uwtable
define linkonce_odr hidden noundef i8* @_Z15__libcpp_strstrPKcS0_(i8* noundef %0, i8* noundef %1) #4 !dbg !6742 {
  %3 = alloca i8*, align 8
  %4 = alloca i8*, align 8
  store i8* %0, i8** %3, align 8, !tbaa !5701
  call void @llvm.dbg.declare(metadata i8** %3, metadata !6746, metadata !DIExpression()), !dbg !6748
  store i8* %1, i8** %4, align 8, !tbaa !5701
  call void @llvm.dbg.declare(metadata i8** %4, metadata !6747, metadata !DIExpression()), !dbg !6749
  %5 = load i8*, i8** %3, align 8, !dbg !6750, !tbaa !5701
  %6 = load i8*, i8** %4, align 8, !dbg !6751, !tbaa !5701
  %7 = call i8* @strstr(i8* noundef %5, i8* noundef %6), !dbg !6752
  ret i8* %7, !dbg !6753
}

declare i8* @strstr(i8* noundef, i8* noundef) #6

; Function Attrs: mustprogress nounwind ssp uwtable
define linkonce_odr hidden noundef i32 @_ZNK6Halide7Runtime6BufferItLi2ELi2EE10dimensionsEv(%"class.Halide::Runtime::Buffer"* noundef nonnull align 8 dereferenceable(104) %0) #7 align 2 !dbg !6754 {
  %2 = alloca %"class.Halide::Runtime::Buffer"*, align 8
  store %"class.Halide::Runtime::Buffer"* %0, %"class.Halide::Runtime::Buffer"** %2, align 8, !tbaa !5701
  call void @llvm.dbg.declare(metadata %"class.Halide::Runtime::Buffer"** %2, metadata !6756, metadata !DIExpression()), !dbg !6757
  %3 = load %"class.Halide::Runtime::Buffer"*, %"class.Halide::Runtime::Buffer"** %2, align 8
  ret i32 2, !dbg !6758
}

; Function Attrs: alwaysinline mustprogress ssp uwtable
define linkonce_odr hidden %struct.halide_dimension_t* @_ZNK6Halide7Runtime6BufferItLi2ELi2EE3dimEi(%"class.Halide::Runtime::Buffer"* noundef nonnull align 8 dereferenceable(104) %0, i32 noundef %1) #9 align 2 !dbg !6761 {
  %3 = alloca %"class.Halide::Runtime::Buffer<unsigned short, 2, 2>::Dimension", align 8
  %4 = alloca %"class.Halide::Runtime::Buffer"*, align 8
  %5 = alloca i32, align 4
  store %"class.Halide::Runtime::Buffer"* %0, %"class.Halide::Runtime::Buffer"** %4, align 8, !tbaa !5701
  call void @llvm.dbg.declare(metadata %"class.Halide::Runtime::Buffer"** %4, metadata !6763, metadata !DIExpression()), !dbg !6765
  store i32 %1, i32* %5, align 4, !tbaa !5744
  call void @llvm.dbg.declare(metadata i32* %5, metadata !6764, metadata !DIExpression()), !dbg !6766
  %6 = load %"class.Halide::Runtime::Buffer"*, %"class.Halide::Runtime::Buffer"** %4, align 8
  %7 = load i32, i32* %5, align 4, !dbg !6767, !tbaa !5744
  %8 = icmp sge i32 %7, 0, !dbg !6767
  br i1 %8, label %9, label %13, !dbg !6767

9:                                                ; preds = %2
  %10 = load i32, i32* %5, align 4, !dbg !6767, !tbaa !5744
  %11 = call noundef i32 @_ZNK6Halide7Runtime6BufferItLi2ELi2EE10dimensionsEv(%"class.Halide::Runtime::Buffer"* noundef nonnull align 8 dereferenceable(104) %6), !dbg !6767
  %12 = icmp slt i32 %10, %11, !dbg !6767
  br label %13

13:                                               ; preds = %9, %2
  %14 = phi i1 [ false, %2 ], [ %12, %9 ], !dbg !6765
  %15 = xor i1 %14, true, !dbg !6767
  %16 = zext i1 %15 to i64, !dbg !6767
  %17 = call i64 @llvm.expect.i64(i64 %16, i64 0), !dbg !6767
  %18 = icmp ne i64 %17, 0, !dbg !6767
  br i1 %18, label %19, label %21, !dbg !6767

19:                                               ; preds = %13
  call void @__assert_rtn(i8* noundef getelementptr inbounds ([4 x i8], [4 x i8]* @__func__._ZNK6Halide7Runtime6BufferItLi2ELi2EE3dimEi, i64 0, i64 0), i8* noundef getelementptr inbounds ([15 x i8], [15 x i8]* @.str.5, i64 0, i64 0), i32 noundef 618, i8* noundef getelementptr inbounds ([33 x i8], [33 x i8]* @.str.6, i64 0, i64 0)) #33, !dbg !6767
  unreachable, !dbg !6767

20:                                               ; No predecessors!
  br label %22, !dbg !6767

21:                                               ; preds = %13
  br label %22, !dbg !6767

22:                                               ; preds = %21, %20
  %23 = getelementptr inbounds %"class.Halide::Runtime::Buffer", %"class.Halide::Runtime::Buffer"* %6, i32 0, i32 0, !dbg !6768
  %24 = getelementptr inbounds %struct.halide_buffer_t, %struct.halide_buffer_t* %23, i32 0, i32 6, !dbg !6769
  %25 = load %struct.halide_dimension_t*, %struct.halide_dimension_t** %24, align 8, !dbg !6769, !tbaa !6770
  %26 = load i32, i32* %5, align 4, !dbg !6771, !tbaa !5744
  %27 = sext i32 %26 to i64, !dbg !6768
  %28 = getelementptr inbounds %struct.halide_dimension_t, %struct.halide_dimension_t* %25, i64 %27, !dbg !6768
  call void @_ZN6Halide7Runtime6BufferItLi2ELi2EE9DimensionC1ERK18halide_dimension_t(%"class.Halide::Runtime::Buffer<unsigned short, 2, 2>::Dimension"* noundef nonnull align 8 dereferenceable(8) %3, %struct.halide_dimension_t* noundef nonnull align 4 dereferenceable(16) %28), !dbg !6772
  %29 = getelementptr inbounds %"class.Halide::Runtime::Buffer<unsigned short, 2, 2>::Dimension", %"class.Halide::Runtime::Buffer<unsigned short, 2, 2>::Dimension"* %3, i32 0, i32 0, !dbg !6773
  %30 = load %struct.halide_dimension_t*, %struct.halide_dimension_t** %29, align 8, !dbg !6773
  ret %struct.halide_dimension_t* %30, !dbg !6773
}

; Function Attrs: alwaysinline mustprogress nounwind ssp uwtable
define linkonce_odr hidden noundef i32 @_ZNK6Halide7Runtime6BufferItLi2ELi2EE9Dimension6extentEv(%"class.Halide::Runtime::Buffer<unsigned short, 2, 2>::Dimension"* noundef nonnull align 8 dereferenceable(8) %0) #18 align 2 !dbg !6774 {
  %2 = alloca %"class.Halide::Runtime::Buffer<unsigned short, 2, 2>::Dimension"*, align 8
  store %"class.Halide::Runtime::Buffer<unsigned short, 2, 2>::Dimension"* %0, %"class.Halide::Runtime::Buffer<unsigned short, 2, 2>::Dimension"** %2, align 8, !tbaa !5701
  call void @llvm.dbg.declare(metadata %"class.Halide::Runtime::Buffer<unsigned short, 2, 2>::Dimension"** %2, metadata !6776, metadata !DIExpression()), !dbg !6778
  %3 = load %"class.Halide::Runtime::Buffer<unsigned short, 2, 2>::Dimension"*, %"class.Halide::Runtime::Buffer<unsigned short, 2, 2>::Dimension"** %2, align 8
  %4 = getelementptr inbounds %"class.Halide::Runtime::Buffer<unsigned short, 2, 2>::Dimension", %"class.Halide::Runtime::Buffer<unsigned short, 2, 2>::Dimension"* %3, i32 0, i32 0, !dbg !6779
  %5 = load %struct.halide_dimension_t*, %struct.halide_dimension_t** %4, align 8, !dbg !6779, !tbaa !6780
  %6 = getelementptr inbounds %struct.halide_dimension_t, %struct.halide_dimension_t* %5, i32 0, i32 1, !dbg !6782
  %7 = load i32, i32* %6, align 4, !dbg !6782, !tbaa !6783
  ret i32 %7, !dbg !6785
}

; Function Attrs: nofree nosync nounwind readnone willreturn
declare i64 @llvm.expect.i64(i64, i64) #19

; Function Attrs: cold noreturn
declare void @__assert_rtn(i8* noundef, i8* noundef, i32 noundef, i8* noundef) #20

; Function Attrs: ssp uwtable
define linkonce_odr hidden void @_ZN6Halide7Runtime6BufferItLi2ELi2EE9DimensionC1ERK18halide_dimension_t(%"class.Halide::Runtime::Buffer<unsigned short, 2, 2>::Dimension"* noundef nonnull align 8 dereferenceable(8) %0, %struct.halide_dimension_t* noundef nonnull align 4 dereferenceable(16) %1) unnamed_addr #3 align 2 !dbg !6786 {
  %3 = alloca %"class.Halide::Runtime::Buffer<unsigned short, 2, 2>::Dimension"*, align 8
  %4 = alloca %struct.halide_dimension_t*, align 8
  store %"class.Halide::Runtime::Buffer<unsigned short, 2, 2>::Dimension"* %0, %"class.Halide::Runtime::Buffer<unsigned short, 2, 2>::Dimension"** %3, align 8, !tbaa !5701
  call void @llvm.dbg.declare(metadata %"class.Halide::Runtime::Buffer<unsigned short, 2, 2>::Dimension"** %3, metadata !6788, metadata !DIExpression()), !dbg !6791
  store %struct.halide_dimension_t* %1, %struct.halide_dimension_t** %4, align 8, !tbaa !5701
  call void @llvm.dbg.declare(metadata %struct.halide_dimension_t** %4, metadata !6790, metadata !DIExpression()), !dbg !6792
  %5 = load %"class.Halide::Runtime::Buffer<unsigned short, 2, 2>::Dimension"*, %"class.Halide::Runtime::Buffer<unsigned short, 2, 2>::Dimension"** %3, align 8
  %6 = load %struct.halide_dimension_t*, %struct.halide_dimension_t** %4, align 8, !dbg !6793
  call void @_ZN6Halide7Runtime6BufferItLi2ELi2EE9DimensionC2ERK18halide_dimension_t(%"class.Halide::Runtime::Buffer<unsigned short, 2, 2>::Dimension"* noundef nonnull align 8 dereferenceable(8) %5, %struct.halide_dimension_t* noundef nonnull align 4 dereferenceable(16) %6), !dbg !6793
  ret void, !dbg !6794
}

; Function Attrs: nounwind ssp uwtable
define linkonce_odr hidden void @_ZN6Halide7Runtime6BufferItLi2ELi2EE9DimensionC2ERK18halide_dimension_t(%"class.Halide::Runtime::Buffer<unsigned short, 2, 2>::Dimension"* noundef nonnull align 8 dereferenceable(8) %0, %struct.halide_dimension_t* noundef nonnull align 4 dereferenceable(16) %1) unnamed_addr #5 align 2 !dbg !6795 {
  %3 = alloca %"class.Halide::Runtime::Buffer<unsigned short, 2, 2>::Dimension"*, align 8
  %4 = alloca %struct.halide_dimension_t*, align 8
  store %"class.Halide::Runtime::Buffer<unsigned short, 2, 2>::Dimension"* %0, %"class.Halide::Runtime::Buffer<unsigned short, 2, 2>::Dimension"** %3, align 8, !tbaa !5701
  call void @llvm.dbg.declare(metadata %"class.Halide::Runtime::Buffer<unsigned short, 2, 2>::Dimension"** %3, metadata !6797, metadata !DIExpression()), !dbg !6799
  store %struct.halide_dimension_t* %1, %struct.halide_dimension_t** %4, align 8, !tbaa !5701
  call void @llvm.dbg.declare(metadata %struct.halide_dimension_t** %4, metadata !6798, metadata !DIExpression()), !dbg !6800
  %5 = load %"class.Halide::Runtime::Buffer<unsigned short, 2, 2>::Dimension"*, %"class.Halide::Runtime::Buffer<unsigned short, 2, 2>::Dimension"** %3, align 8
  %6 = getelementptr inbounds %"class.Halide::Runtime::Buffer<unsigned short, 2, 2>::Dimension", %"class.Halide::Runtime::Buffer<unsigned short, 2, 2>::Dimension"* %5, i32 0, i32 0, !dbg !6801
  %7 = load %struct.halide_dimension_t*, %struct.halide_dimension_t** %4, align 8, !dbg !6802, !tbaa !5701
  store %struct.halide_dimension_t* %7, %struct.halide_dimension_t** %6, align 8, !dbg !6801, !tbaa !5701
  ret void, !dbg !6803
}

; Function Attrs: ssp uwtable
define linkonce_odr hidden void @_ZN6Halide7Runtime6BufferItLi2ELi2EEC2IJEvEEiiDpT_(%"class.Halide::Runtime::Buffer"* noundef nonnull align 8 dereferenceable(104) %0, i32 noundef %1, i32 noundef %2) unnamed_addr #3 align 2 !dbg !6804 {
  %4 = alloca %"class.Halide::Runtime::Buffer"*, align 8
  %5 = alloca i32, align 4
  %6 = alloca i32, align 4
  %7 = alloca [2 x i32], align 4
  %8 = alloca %struct.halide_type_t, align 2
  %9 = alloca i32, align 4
  store %"class.Halide::Runtime::Buffer"* %0, %"class.Halide::Runtime::Buffer"** %4, align 8, !tbaa !5701
  call void @llvm.dbg.declare(metadata %"class.Halide::Runtime::Buffer"** %4, metadata !6806, metadata !DIExpression()), !dbg !6813
  store i32 %1, i32* %5, align 4, !tbaa !5744
  call void @llvm.dbg.declare(metadata i32* %5, metadata !6807, metadata !DIExpression()), !dbg !6814
  store i32 %2, i32* %6, align 4, !tbaa !5744
  call void @llvm.dbg.declare(metadata i32* %6, metadata !6808, metadata !DIExpression()), !dbg !6815
  %10 = load %"class.Halide::Runtime::Buffer"*, %"class.Halide::Runtime::Buffer"** %4, align 8
  %11 = getelementptr inbounds %"class.Halide::Runtime::Buffer", %"class.Halide::Runtime::Buffer"* %10, i32 0, i32 0, !dbg !6816
  %12 = getelementptr inbounds %struct.halide_buffer_t, %struct.halide_buffer_t* %11, i32 0, i32 0, !dbg !6817
  store i64 0, i64* %12, align 8, !dbg !6817, !tbaa !6818
  %13 = getelementptr inbounds %struct.halide_buffer_t, %struct.halide_buffer_t* %11, i32 0, i32 1, !dbg !6817
  store %struct.halide_device_interface_t* null, %struct.halide_device_interface_t** %13, align 8, !dbg !6817, !tbaa !6819
  %14 = getelementptr inbounds %struct.halide_buffer_t, %struct.halide_buffer_t* %11, i32 0, i32 2, !dbg !6817
  store i8* null, i8** %14, align 8, !dbg !6817, !tbaa !6820
  %15 = getelementptr inbounds %struct.halide_buffer_t, %struct.halide_buffer_t* %11, i32 0, i32 3, !dbg !6817
  store i64 0, i64* %15, align 8, !dbg !6817, !tbaa !6821
  %16 = getelementptr inbounds %struct.halide_buffer_t, %struct.halide_buffer_t* %11, i32 0, i32 4, !dbg !6817
  call void @_ZN13halide_type_tC1Ev(%struct.halide_type_t* noundef nonnull align 2 dereferenceable(4) %16), !dbg !6822
  %17 = getelementptr inbounds %struct.halide_buffer_t, %struct.halide_buffer_t* %11, i32 0, i32 5, !dbg !6817
  store i32 0, i32* %17, align 4, !dbg !6817, !tbaa !6823
  %18 = getelementptr inbounds %struct.halide_buffer_t, %struct.halide_buffer_t* %11, i32 0, i32 6, !dbg !6817
  store %struct.halide_dimension_t* null, %struct.halide_dimension_t** %18, align 8, !dbg !6817, !tbaa !6824
  %19 = getelementptr inbounds %struct.halide_buffer_t, %struct.halide_buffer_t* %11, i32 0, i32 7, !dbg !6817
  store i8* null, i8** %19, align 8, !dbg !6817, !tbaa !6825
  %20 = getelementptr inbounds %"class.Halide::Runtime::Buffer", %"class.Halide::Runtime::Buffer"* %10, i32 0, i32 1, !dbg !6826
  %21 = getelementptr inbounds [2 x %struct.halide_dimension_t], [2 x %struct.halide_dimension_t]* %20, i32 0, i32 0, !dbg !6826
  %22 = getelementptr inbounds %struct.halide_dimension_t, %struct.halide_dimension_t* %21, i64 2, !dbg !6826
  br label %23, !dbg !6826

23:                                               ; preds = %23, %3
  %24 = phi %struct.halide_dimension_t* [ %21, %3 ], [ %25, %23 ], !dbg !6826
  call void @_ZN18halide_dimension_tC1Ev(%struct.halide_dimension_t* noundef nonnull align 4 dereferenceable(16) %24) #32, !dbg !6826
  %25 = getelementptr inbounds %struct.halide_dimension_t, %struct.halide_dimension_t* %24, i64 1, !dbg !6826
  %26 = icmp eq %struct.halide_dimension_t* %25, %22, !dbg !6826
  br i1 %26, label %27, label %23, !dbg !6826

27:                                               ; preds = %23
  %28 = getelementptr inbounds %"class.Halide::Runtime::Buffer", %"class.Halide::Runtime::Buffer"* %10, i32 0, i32 2, !dbg !6827
  store %"struct.Halide::Runtime::AllocationHeader"* null, %"struct.Halide::Runtime::AllocationHeader"** %28, align 8, !dbg !6827, !tbaa !6828
  %29 = getelementptr inbounds %"class.Halide::Runtime::Buffer", %"class.Halide::Runtime::Buffer"* %10, i32 0, i32 3, !dbg !6829
  store %"struct.Halide::Runtime::DeviceRefCount"* null, %"struct.Halide::Runtime::DeviceRefCount"** %29, align 8, !dbg !6829, !tbaa !6830
  %30 = bitcast [2 x i32]* %7 to i8*, !dbg !6831
  call void @llvm.lifetime.start.p0i8(i64 8, i8* %30) #32, !dbg !6831
  call void @llvm.dbg.declare(metadata [2 x i32]* %7, metadata !6809, metadata !DIExpression()), !dbg !6832
  %31 = getelementptr inbounds [2 x i32], [2 x i32]* %7, i64 0, i64 0, !dbg !6833
  %32 = load i32, i32* %5, align 4, !dbg !6834, !tbaa !5744
  store i32 %32, i32* %31, align 4, !dbg !6833, !tbaa !5744
  %33 = getelementptr inbounds i32, i32* %31, i64 1, !dbg !6833
  %34 = load i32, i32* %6, align 4, !dbg !6835, !tbaa !5744
  store i32 %34, i32* %33, align 4, !dbg !6833, !tbaa !5744
  %35 = bitcast %struct.halide_type_t* %8 to i8*, !dbg !6836
  call void @llvm.lifetime.start.p0i8(i64 4, i8* %35) #32, !dbg !6836
  %36 = call i32 @_ZN6Halide7Runtime6BufferItLi2ELi2EE18static_halide_typeEv(), !dbg !6836
  %37 = bitcast %struct.halide_type_t* %8 to i32*, !dbg !6836
  store i32 %36, i32* %37, align 2, !dbg !6836
  %38 = getelementptr inbounds %"class.Halide::Runtime::Buffer", %"class.Halide::Runtime::Buffer"* %10, i32 0, i32 0, !dbg !6837
  %39 = getelementptr inbounds %struct.halide_buffer_t, %struct.halide_buffer_t* %38, i32 0, i32 4, !dbg !6838
  %40 = bitcast %struct.halide_type_t* %39 to i8*, !dbg !6839
  %41 = bitcast %struct.halide_type_t* %8 to i8*, !dbg !6839
  call void @llvm.memcpy.p0i8.p0i8.i64(i8* align 8 %40, i8* align 2 %41, i64 4, i1 false), !dbg !6839, !tbaa.struct !6840
  %42 = bitcast %struct.halide_type_t* %8 to i8*, !dbg !6837
  call void @llvm.lifetime.end.p0i8(i64 4, i8* %42) #32, !dbg !6837
  %43 = bitcast i32* %9 to i8*, !dbg !6843
  call void @llvm.lifetime.start.p0i8(i64 4, i8* %43) #32, !dbg !6843
  call void @llvm.dbg.declare(metadata i32* %9, metadata !6812, metadata !DIExpression()), !dbg !6844
  store i32 2, i32* %9, align 4, !dbg !6844, !tbaa !5744
  call void @_ZN6Halide7Runtime6BufferItLi2ELi2EE25make_static_shape_storageILi2EEEvv(%"class.Halide::Runtime::Buffer"* noundef nonnull align 8 dereferenceable(104) %10), !dbg !6845
  %44 = getelementptr inbounds [2 x i32], [2 x i32]* %7, i64 0, i64 0, !dbg !6846
  call void @_ZN6Halide7Runtime6BufferItLi2ELi2EE16initialize_shapeEPKi(%"class.Halide::Runtime::Buffer"* noundef nonnull align 8 dereferenceable(104) %10, i32* noundef %44), !dbg !6847
  %45 = call noundef zeroext i1 @_ZN6Halide7Runtime8Internal8any_zeroIA2_iEEbRKT_([2 x i32]* noundef nonnull align 4 dereferenceable(8) %7), !dbg !6848
  br i1 %45, label %47, label %46, !dbg !6850

46:                                               ; preds = %27
  call void @_ZN6Halide7Runtime6BufferItLi2ELi2EE14check_overflowEv(%"class.Halide::Runtime::Buffer"* noundef nonnull align 8 dereferenceable(104) %10), !dbg !6851
  call void @_ZN6Halide7Runtime6BufferItLi2ELi2EE8allocateEPFPvmEPFvS3_E(%"class.Halide::Runtime::Buffer"* noundef nonnull align 8 dereferenceable(104) %10, i8* (i64)* noundef null, void (i8*)* noundef null), !dbg !6853
  br label %47, !dbg !6854

47:                                               ; preds = %46, %27
  %48 = bitcast i32* %9 to i8*, !dbg !6855
  call void @llvm.lifetime.end.p0i8(i64 4, i8* %48) #32, !dbg !6855
  %49 = bitcast [2 x i32]* %7 to i8*, !dbg !6855
  call void @llvm.lifetime.end.p0i8(i64 8, i8* %49) #32, !dbg !6855
  ret void, !dbg !6855
}

; Function Attrs: alwaysinline ssp uwtable
define linkonce_odr hidden void @_ZN13halide_type_tC1Ev(%struct.halide_type_t* noundef nonnull align 2 dereferenceable(4) %0) unnamed_addr #21 align 2 !dbg !6856 {
  %2 = alloca %struct.halide_type_t*, align 8
  store %struct.halide_type_t* %0, %struct.halide_type_t** %2, align 8, !tbaa !5701
  call void @llvm.dbg.declare(metadata %struct.halide_type_t** %2, metadata !6858, metadata !DIExpression()), !dbg !6860
  %3 = load %struct.halide_type_t*, %struct.halide_type_t** %2, align 8
  call void @_ZN13halide_type_tC2Ev(%struct.halide_type_t* noundef nonnull align 2 dereferenceable(4) %3), !dbg !6861
  ret void, !dbg !6862
}

; Function Attrs: alwaysinline nounwind ssp uwtable
define linkonce_odr hidden void @_ZN18halide_dimension_tC1Ev(%struct.halide_dimension_t* noundef nonnull align 4 dereferenceable(16) %0) unnamed_addr #22 align 2 !dbg !6863 {
  %2 = alloca %struct.halide_dimension_t*, align 8
  store %struct.halide_dimension_t* %0, %struct.halide_dimension_t** %2, align 8, !tbaa !5701
  call void @llvm.dbg.declare(metadata %struct.halide_dimension_t** %2, metadata !6865, metadata !DIExpression()), !dbg !6866
  %3 = load %struct.halide_dimension_t*, %struct.halide_dimension_t** %2, align 8
  call void @_ZN18halide_dimension_tC2Ev(%struct.halide_dimension_t* noundef nonnull align 4 dereferenceable(16) %3) #32, !dbg !6867
  ret void, !dbg !6867
}

; Function Attrs: mustprogress ssp uwtable
define linkonce_odr hidden i32 @_ZN6Halide7Runtime6BufferItLi2ELi2EE18static_halide_typeEv() #0 align 2 !dbg !6868 {
  %1 = alloca %struct.halide_type_t, align 2
  %2 = call i32 @_Z14halide_type_ofItE13halide_type_tv(), !dbg !6869
  %3 = bitcast %struct.halide_type_t* %1 to i32*, !dbg !6869
  store i32 %2, i32* %3, align 2, !dbg !6869
  %4 = bitcast %struct.halide_type_t* %1 to i32*, !dbg !6870
  %5 = load i32, i32* %4, align 2, !dbg !6870
  ret i32 %5, !dbg !6870
}

; Function Attrs: mustprogress nounwind ssp uwtable
define linkonce_odr hidden void @_ZN6Halide7Runtime6BufferItLi2ELi2EE25make_static_shape_storageILi2EEEvv(%"class.Halide::Runtime::Buffer"* noundef nonnull align 8 dereferenceable(104) %0) #7 align 2 !dbg !6871 {
  %2 = alloca %"class.Halide::Runtime::Buffer"*, align 8
  store %"class.Halide::Runtime::Buffer"* %0, %"class.Halide::Runtime::Buffer"** %2, align 8, !tbaa !5701
  call void @llvm.dbg.declare(metadata %"class.Halide::Runtime::Buffer"** %2, metadata !6876, metadata !DIExpression()), !dbg !6877
  %3 = load %"class.Halide::Runtime::Buffer"*, %"class.Halide::Runtime::Buffer"** %2, align 8
  %4 = getelementptr inbounds %"class.Halide::Runtime::Buffer", %"class.Halide::Runtime::Buffer"* %3, i32 0, i32 0, !dbg !6878
  %5 = getelementptr inbounds %struct.halide_buffer_t, %struct.halide_buffer_t* %4, i32 0, i32 5, !dbg !6879
  store i32 2, i32* %5, align 4, !dbg !6880, !tbaa !6881
  %6 = getelementptr inbounds %"class.Halide::Runtime::Buffer", %"class.Halide::Runtime::Buffer"* %3, i32 0, i32 1, !dbg !6882
  %7 = getelementptr inbounds [2 x %struct.halide_dimension_t], [2 x %struct.halide_dimension_t]* %6, i64 0, i64 0, !dbg !6882
  %8 = getelementptr inbounds %"class.Halide::Runtime::Buffer", %"class.Halide::Runtime::Buffer"* %3, i32 0, i32 0, !dbg !6885
  %9 = getelementptr inbounds %struct.halide_buffer_t, %struct.halide_buffer_t* %8, i32 0, i32 6, !dbg !6886
  store %struct.halide_dimension_t* %7, %struct.halide_dimension_t** %9, align 8, !dbg !6887, !tbaa !6770
  ret void, !dbg !6888
}

; Function Attrs: mustprogress nounwind ssp uwtable
define linkonce_odr hidden void @_ZN6Halide7Runtime6BufferItLi2ELi2EE16initialize_shapeEPKi(%"class.Halide::Runtime::Buffer"* noundef nonnull align 8 dereferenceable(104) %0, i32* noundef %1) #7 align 2 !dbg !6889 {
  %3 = alloca %"class.Halide::Runtime::Buffer"*, align 8
  %4 = alloca i32*, align 8
  %5 = alloca i32, align 4
  store %"class.Halide::Runtime::Buffer"* %0, %"class.Halide::Runtime::Buffer"** %3, align 8, !tbaa !5701
  call void @llvm.dbg.declare(metadata %"class.Halide::Runtime::Buffer"** %3, metadata !6891, metadata !DIExpression()), !dbg !6895
  store i32* %1, i32** %4, align 8, !tbaa !5701
  call void @llvm.dbg.declare(metadata i32** %4, metadata !6892, metadata !DIExpression()), !dbg !6896
  %6 = load %"class.Halide::Runtime::Buffer"*, %"class.Halide::Runtime::Buffer"** %3, align 8
  %7 = bitcast i32* %5 to i8*, !dbg !6897
  call void @llvm.lifetime.start.p0i8(i64 4, i8* %7) #32, !dbg !6897
  call void @llvm.dbg.declare(metadata i32* %5, metadata !6893, metadata !DIExpression()), !dbg !6898
  store i32 0, i32* %5, align 4, !dbg !6898, !tbaa !5744
  br label %8, !dbg !6897

8:                                                ; preds = %74, %2
  %9 = load i32, i32* %5, align 4, !dbg !6899, !tbaa !5744
  %10 = getelementptr inbounds %"class.Halide::Runtime::Buffer", %"class.Halide::Runtime::Buffer"* %6, i32 0, i32 0, !dbg !6901
  %11 = getelementptr inbounds %struct.halide_buffer_t, %struct.halide_buffer_t* %10, i32 0, i32 5, !dbg !6902
  %12 = load i32, i32* %11, align 4, !dbg !6902, !tbaa !6881
  %13 = icmp slt i32 %9, %12, !dbg !6903
  br i1 %13, label %16, label %14, !dbg !6904

14:                                               ; preds = %8
  %15 = bitcast i32* %5 to i8*, !dbg !6905
  call void @llvm.lifetime.end.p0i8(i64 4, i8* %15) #32, !dbg !6905
  br label %77

16:                                               ; preds = %8
  %17 = getelementptr inbounds %"class.Halide::Runtime::Buffer", %"class.Halide::Runtime::Buffer"* %6, i32 0, i32 0, !dbg !6906
  %18 = getelementptr inbounds %struct.halide_buffer_t, %struct.halide_buffer_t* %17, i32 0, i32 6, !dbg !6908
  %19 = load %struct.halide_dimension_t*, %struct.halide_dimension_t** %18, align 8, !dbg !6908, !tbaa !6770
  %20 = load i32, i32* %5, align 4, !dbg !6909, !tbaa !5744
  %21 = sext i32 %20 to i64, !dbg !6906
  %22 = getelementptr inbounds %struct.halide_dimension_t, %struct.halide_dimension_t* %19, i64 %21, !dbg !6906
  %23 = getelementptr inbounds %struct.halide_dimension_t, %struct.halide_dimension_t* %22, i32 0, i32 0, !dbg !6910
  store i32 0, i32* %23, align 4, !dbg !6911, !tbaa !6912
  %24 = load i32*, i32** %4, align 8, !dbg !6913, !tbaa !5701
  %25 = load i32, i32* %5, align 4, !dbg !6914, !tbaa !5744
  %26 = sext i32 %25 to i64, !dbg !6913
  %27 = getelementptr inbounds i32, i32* %24, i64 %26, !dbg !6913
  %28 = load i32, i32* %27, align 4, !dbg !6913, !tbaa !5744
  %29 = getelementptr inbounds %"class.Halide::Runtime::Buffer", %"class.Halide::Runtime::Buffer"* %6, i32 0, i32 0, !dbg !6915
  %30 = getelementptr inbounds %struct.halide_buffer_t, %struct.halide_buffer_t* %29, i32 0, i32 6, !dbg !6916
  %31 = load %struct.halide_dimension_t*, %struct.halide_dimension_t** %30, align 8, !dbg !6916, !tbaa !6770
  %32 = load i32, i32* %5, align 4, !dbg !6917, !tbaa !5744
  %33 = sext i32 %32 to i64, !dbg !6915
  %34 = getelementptr inbounds %struct.halide_dimension_t, %struct.halide_dimension_t* %31, i64 %33, !dbg !6915
  %35 = getelementptr inbounds %struct.halide_dimension_t, %struct.halide_dimension_t* %34, i32 0, i32 1, !dbg !6918
  store i32 %28, i32* %35, align 4, !dbg !6919, !tbaa !6783
  %36 = load i32, i32* %5, align 4, !dbg !6920, !tbaa !5744
  %37 = icmp eq i32 %36, 0, !dbg !6922
  br i1 %37, label %38, label %46, !dbg !6923

38:                                               ; preds = %16
  %39 = getelementptr inbounds %"class.Halide::Runtime::Buffer", %"class.Halide::Runtime::Buffer"* %6, i32 0, i32 0, !dbg !6924
  %40 = getelementptr inbounds %struct.halide_buffer_t, %struct.halide_buffer_t* %39, i32 0, i32 6, !dbg !6926
  %41 = load %struct.halide_dimension_t*, %struct.halide_dimension_t** %40, align 8, !dbg !6926, !tbaa !6770
  %42 = load i32, i32* %5, align 4, !dbg !6927, !tbaa !5744
  %43 = sext i32 %42 to i64, !dbg !6924
  %44 = getelementptr inbounds %struct.halide_dimension_t, %struct.halide_dimension_t* %41, i64 %43, !dbg !6924
  %45 = getelementptr inbounds %struct.halide_dimension_t, %struct.halide_dimension_t* %44, i32 0, i32 2, !dbg !6928
  store i32 1, i32* %45, align 4, !dbg !6929, !tbaa !6930
  br label %73, !dbg !6931

46:                                               ; preds = %16
  %47 = getelementptr inbounds %"class.Halide::Runtime::Buffer", %"class.Halide::Runtime::Buffer"* %6, i32 0, i32 0, !dbg !6932
  %48 = getelementptr inbounds %struct.halide_buffer_t, %struct.halide_buffer_t* %47, i32 0, i32 6, !dbg !6934
  %49 = load %struct.halide_dimension_t*, %struct.halide_dimension_t** %48, align 8, !dbg !6934, !tbaa !6770
  %50 = load i32, i32* %5, align 4, !dbg !6935, !tbaa !5744
  %51 = sub nsw i32 %50, 1, !dbg !6936
  %52 = sext i32 %51 to i64, !dbg !6932
  %53 = getelementptr inbounds %struct.halide_dimension_t, %struct.halide_dimension_t* %49, i64 %52, !dbg !6932
  %54 = getelementptr inbounds %struct.halide_dimension_t, %struct.halide_dimension_t* %53, i32 0, i32 2, !dbg !6937
  %55 = load i32, i32* %54, align 4, !dbg !6937, !tbaa !6930
  %56 = getelementptr inbounds %"class.Halide::Runtime::Buffer", %"class.Halide::Runtime::Buffer"* %6, i32 0, i32 0, !dbg !6938
  %57 = getelementptr inbounds %struct.halide_buffer_t, %struct.halide_buffer_t* %56, i32 0, i32 6, !dbg !6939
  %58 = load %struct.halide_dimension_t*, %struct.halide_dimension_t** %57, align 8, !dbg !6939, !tbaa !6770
  %59 = load i32, i32* %5, align 4, !dbg !6940, !tbaa !5744
  %60 = sub nsw i32 %59, 1, !dbg !6941
  %61 = sext i32 %60 to i64, !dbg !6938
  %62 = getelementptr inbounds %struct.halide_dimension_t, %struct.halide_dimension_t* %58, i64 %61, !dbg !6938
  %63 = getelementptr inbounds %struct.halide_dimension_t, %struct.halide_dimension_t* %62, i32 0, i32 1, !dbg !6942
  %64 = load i32, i32* %63, align 4, !dbg !6942, !tbaa !6783
  %65 = mul nsw i32 %55, %64, !dbg !6943
  %66 = getelementptr inbounds %"class.Halide::Runtime::Buffer", %"class.Halide::Runtime::Buffer"* %6, i32 0, i32 0, !dbg !6944
  %67 = getelementptr inbounds %struct.halide_buffer_t, %struct.halide_buffer_t* %66, i32 0, i32 6, !dbg !6945
  %68 = load %struct.halide_dimension_t*, %struct.halide_dimension_t** %67, align 8, !dbg !6945, !tbaa !6770
  %69 = load i32, i32* %5, align 4, !dbg !6946, !tbaa !5744
  %70 = sext i32 %69 to i64, !dbg !6944
  %71 = getelementptr inbounds %struct.halide_dimension_t, %struct.halide_dimension_t* %68, i64 %70, !dbg !6944
  %72 = getelementptr inbounds %struct.halide_dimension_t, %struct.halide_dimension_t* %71, i32 0, i32 2, !dbg !6947
  store i32 %65, i32* %72, align 4, !dbg !6948, !tbaa !6930
  br label %73

73:                                               ; preds = %46, %38
  br label %74, !dbg !6949

74:                                               ; preds = %73
  %75 = load i32, i32* %5, align 4, !dbg !6950, !tbaa !5744
  %76 = add nsw i32 %75, 1, !dbg !6950
  store i32 %76, i32* %5, align 4, !dbg !6950, !tbaa !5744
  br label %8, !dbg !6905, !llvm.loop !6951

77:                                               ; preds = %14
  ret void, !dbg !6953
}

; Function Attrs: mustprogress nounwind ssp uwtable
define linkonce_odr hidden noundef zeroext i1 @_ZN6Halide7Runtime8Internal8any_zeroIA2_iEEbRKT_([2 x i32]* noundef nonnull align 4 dereferenceable(8) %0) #7 !dbg !6954 {
  %2 = alloca i1, align 1
  %3 = alloca [2 x i32]*, align 8
  %4 = alloca [2 x i32]*, align 8
  %5 = alloca i32*, align 8
  %6 = alloca i32*, align 8
  %7 = alloca i32, align 4
  %8 = alloca i32, align 4
  store [2 x i32]* %0, [2 x i32]** %3, align 8, !tbaa !5701
  call void @llvm.dbg.declare(metadata [2 x i32]** %3, metadata !6961, metadata !DIExpression()), !dbg !6970
  %9 = bitcast [2 x i32]** %4 to i8*, !dbg !6971
  call void @llvm.lifetime.start.p0i8(i64 8, i8* %9) #32, !dbg !6971
  call void @llvm.dbg.declare(metadata [2 x i32]** %4, metadata !6962, metadata !DIExpression()), !dbg !6972
  %10 = load [2 x i32]*, [2 x i32]** %3, align 8, !dbg !6971, !tbaa !5701
  store [2 x i32]* %10, [2 x i32]** %4, align 8, !dbg !6971, !tbaa !5701
  %11 = bitcast i32** %5 to i8*, !dbg !6973
  call void @llvm.lifetime.start.p0i8(i64 8, i8* %11) #32, !dbg !6973
  call void @llvm.dbg.declare(metadata i32** %5, metadata !6964, metadata !DIExpression()), !dbg !6972
  %12 = load [2 x i32]*, [2 x i32]** %4, align 8, !dbg !6973, !tbaa !5701
  %13 = getelementptr inbounds [2 x i32], [2 x i32]* %12, i64 0, i64 0, !dbg !6973
  store i32* %13, i32** %5, align 8, !dbg !6973, !tbaa !5701
  %14 = bitcast i32** %6 to i8*, !dbg !6973
  call void @llvm.lifetime.start.p0i8(i64 8, i8* %14) #32, !dbg !6973
  call void @llvm.dbg.declare(metadata i32** %6, metadata !6965, metadata !DIExpression()), !dbg !6972
  %15 = load [2 x i32]*, [2 x i32]** %4, align 8, !dbg !6973, !tbaa !5701
  %16 = getelementptr inbounds [2 x i32], [2 x i32]* %15, i64 0, i64 0, !dbg !6973
  %17 = getelementptr inbounds i32, i32* %16, i64 2, !dbg !6973
  store i32* %17, i32** %6, align 8, !dbg !6973, !tbaa !5701
  br label %18, !dbg !6973

18:                                               ; preds = %35, %1
  %19 = load i32*, i32** %5, align 8, !dbg !6973, !tbaa !5701
  %20 = load i32*, i32** %6, align 8, !dbg !6973, !tbaa !5701
  %21 = icmp ne i32* %19, %20, !dbg !6973
  br i1 %21, label %23, label %22, !dbg !6973

22:                                               ; preds = %18
  store i32 2, i32* %7, align 4
  br label %38, !dbg !6973

23:                                               ; preds = %18
  %24 = bitcast i32* %8 to i8*, !dbg !6974
  call void @llvm.lifetime.start.p0i8(i64 4, i8* %24) #32, !dbg !6974
  call void @llvm.dbg.declare(metadata i32* %8, metadata !6966, metadata !DIExpression()), !dbg !6975
  %25 = load i32*, i32** %5, align 8, !dbg !6976, !tbaa !5701
  %26 = load i32, i32* %25, align 4, !dbg !6976, !tbaa !5744
  store i32 %26, i32* %8, align 4, !dbg !6975, !tbaa !5744
  %27 = load i32, i32* %8, align 4, !dbg !6977, !tbaa !5744
  %28 = icmp eq i32 %27, 0, !dbg !6980
  br i1 %28, label %29, label %30, !dbg !6981

29:                                               ; preds = %23
  store i1 true, i1* %2, align 1, !dbg !6982
  store i32 1, i32* %7, align 4
  br label %31, !dbg !6982

30:                                               ; preds = %23
  store i32 0, i32* %7, align 4, !dbg !6984
  br label %31, !dbg !6984

31:                                               ; preds = %30, %29
  %32 = bitcast i32* %8 to i8*, !dbg !6984
  call void @llvm.lifetime.end.p0i8(i64 4, i8* %32) #32, !dbg !6984
  %33 = load i32, i32* %7, align 4
  switch i32 %33, label %38 [
    i32 0, label %34
  ]

34:                                               ; preds = %31
  br label %35, !dbg !6985

35:                                               ; preds = %34
  %36 = load i32*, i32** %5, align 8, !dbg !6973, !tbaa !5701
  %37 = getelementptr inbounds i32, i32* %36, i32 1, !dbg !6973
  store i32* %37, i32** %5, align 8, !dbg !6973, !tbaa !5701
  br label %18, !dbg !6973, !llvm.loop !6986

38:                                               ; preds = %31, %22
  %39 = bitcast i32** %6 to i8*, !dbg !6973
  call void @llvm.lifetime.end.p0i8(i64 8, i8* %39) #32, !dbg !6973
  %40 = bitcast i32** %5 to i8*, !dbg !6973
  call void @llvm.lifetime.end.p0i8(i64 8, i8* %40) #32, !dbg !6973
  %41 = bitcast [2 x i32]** %4 to i8*, !dbg !6973
  call void @llvm.lifetime.end.p0i8(i64 8, i8* %41) #32, !dbg !6973
  %42 = load i32, i32* %7, align 4
  switch i32 %42, label %46 [
    i32 2, label %43
    i32 1, label %44
  ]

43:                                               ; preds = %38
  store i1 false, i1* %2, align 1, !dbg !6987
  br label %44, !dbg !6987

44:                                               ; preds = %43, %38
  %45 = load i1, i1* %2, align 1, !dbg !6988
  ret i1 %45, !dbg !6988

46:                                               ; preds = %38
  unreachable
}

; Function Attrs: mustprogress ssp uwtable
define linkonce_odr hidden void @_ZN6Halide7Runtime6BufferItLi2ELi2EE14check_overflowEv(%"class.Halide::Runtime::Buffer"* noundef nonnull align 8 dereferenceable(104) %0) #0 align 2 !dbg !6989 {
  %2 = alloca %"class.Halide::Runtime::Buffer"*, align 8
  %3 = alloca i64, align 8
  %4 = alloca %struct.halide_type_t, align 2
  %5 = alloca i32, align 4
  %6 = alloca %"class.Halide::Runtime::Buffer<unsigned short, 2, 2>::Dimension", align 8
  %7 = alloca i32, align 4
  %8 = alloca %"class.Halide::Runtime::Buffer<unsigned short, 2, 2>::Dimension", align 8
  %9 = alloca %struct.halide_type_t, align 2
  store %"class.Halide::Runtime::Buffer"* %0, %"class.Halide::Runtime::Buffer"** %2, align 8, !tbaa !5701
  call void @llvm.dbg.declare(metadata %"class.Halide::Runtime::Buffer"** %2, metadata !6991, metadata !DIExpression()), !dbg !6997
  %10 = load %"class.Halide::Runtime::Buffer"*, %"class.Halide::Runtime::Buffer"** %2, align 8
  %11 = bitcast i64* %3 to i8*, !dbg !6998
  call void @llvm.lifetime.start.p0i8(i64 8, i8* %11) #32, !dbg !6998
  call void @llvm.dbg.declare(metadata i64* %3, metadata !6992, metadata !DIExpression()), !dbg !6999
  %12 = bitcast %struct.halide_type_t* %4 to i8*, !dbg !7000
  call void @llvm.lifetime.start.p0i8(i64 4, i8* %12) #32, !dbg !7000
  %13 = call i32 @_ZNK6Halide7Runtime6BufferItLi2ELi2EE4typeEv(%"class.Halide::Runtime::Buffer"* noundef nonnull align 8 dereferenceable(104) %10), !dbg !7000
  %14 = bitcast %struct.halide_type_t* %4 to i32*, !dbg !7000
  store i32 %13, i32* %14, align 2, !dbg !7000
  %15 = call noundef i32 @_ZNK13halide_type_t5bytesEv(%struct.halide_type_t* noundef nonnull align 2 dereferenceable(4) %4), !dbg !7001
  %16 = sext i32 %15 to i64, !dbg !7000
  %17 = bitcast %struct.halide_type_t* %4 to i8*, !dbg !7000
  call void @llvm.lifetime.end.p0i8(i64 4, i8* %17) #32, !dbg !7000
  store i64 %16, i64* %3, align 8, !dbg !6999, !tbaa !7002
  %18 = bitcast i32* %5 to i8*, !dbg !7004
  call void @llvm.lifetime.start.p0i8(i64 4, i8* %18) #32, !dbg !7004
  call void @llvm.dbg.declare(metadata i32* %5, metadata !6993, metadata !DIExpression()), !dbg !7005
  store i32 0, i32* %5, align 4, !dbg !7005, !tbaa !5744
  br label %19, !dbg !7004

19:                                               ; preds = %35, %1
  %20 = load i32, i32* %5, align 4, !dbg !7006, !tbaa !5744
  %21 = call noundef i32 @_ZNK6Halide7Runtime6BufferItLi2ELi2EE10dimensionsEv(%"class.Halide::Runtime::Buffer"* noundef nonnull align 8 dereferenceable(104) %10), !dbg !7008
  %22 = icmp slt i32 %20, %21, !dbg !7009
  br i1 %22, label %25, label %23, !dbg !7010

23:                                               ; preds = %19
  %24 = bitcast i32* %5 to i8*, !dbg !7011
  call void @llvm.lifetime.end.p0i8(i64 4, i8* %24) #32, !dbg !7011
  br label %38

25:                                               ; preds = %19
  %26 = bitcast %"class.Halide::Runtime::Buffer<unsigned short, 2, 2>::Dimension"* %6 to i8*, !dbg !7012
  call void @llvm.lifetime.start.p0i8(i64 8, i8* %26) #32, !dbg !7012
  %27 = load i32, i32* %5, align 4, !dbg !7014, !tbaa !5744
  %28 = call %struct.halide_dimension_t* @_ZNK6Halide7Runtime6BufferItLi2ELi2EE3dimEi(%"class.Halide::Runtime::Buffer"* noundef nonnull align 8 dereferenceable(104) %10, i32 noundef %27), !dbg !7012
  %29 = getelementptr inbounds %"class.Halide::Runtime::Buffer<unsigned short, 2, 2>::Dimension", %"class.Halide::Runtime::Buffer<unsigned short, 2, 2>::Dimension"* %6, i32 0, i32 0, !dbg !7012
  store %struct.halide_dimension_t* %28, %struct.halide_dimension_t** %29, align 8, !dbg !7012
  %30 = call noundef i32 @_ZNK6Halide7Runtime6BufferItLi2ELi2EE9Dimension6extentEv(%"class.Halide::Runtime::Buffer<unsigned short, 2, 2>::Dimension"* noundef nonnull align 8 dereferenceable(8) %6), !dbg !7015
  %31 = sext i32 %30 to i64, !dbg !7012
  %32 = load i64, i64* %3, align 8, !dbg !7016, !tbaa !7002
  %33 = mul i64 %32, %31, !dbg !7016
  store i64 %33, i64* %3, align 8, !dbg !7016, !tbaa !7002
  %34 = bitcast %"class.Halide::Runtime::Buffer<unsigned short, 2, 2>::Dimension"* %6 to i8*, !dbg !7017
  call void @llvm.lifetime.end.p0i8(i64 8, i8* %34) #32, !dbg !7017
  br label %35, !dbg !7018

35:                                               ; preds = %25
  %36 = load i32, i32* %5, align 4, !dbg !7019, !tbaa !5744
  %37 = add nsw i32 %36, 1, !dbg !7019
  store i32 %37, i32* %5, align 4, !dbg !7019, !tbaa !5744
  br label %19, !dbg !7011, !llvm.loop !7020

38:                                               ; preds = %23
  %39 = load i64, i64* %3, align 8, !dbg !7022, !tbaa !7002
  %40 = shl i64 %39, 1, !dbg !7023
  %41 = lshr i64 %40, 1, !dbg !7024
  store i64 %41, i64* %3, align 8, !dbg !7025, !tbaa !7002
  %42 = bitcast i32* %7 to i8*, !dbg !7026
  call void @llvm.lifetime.start.p0i8(i64 4, i8* %42) #32, !dbg !7026
  call void @llvm.dbg.declare(metadata i32* %7, metadata !6995, metadata !DIExpression()), !dbg !7027
  store i32 0, i32* %7, align 4, !dbg !7027, !tbaa !5744
  br label %43, !dbg !7026

43:                                               ; preds = %59, %38
  %44 = load i32, i32* %7, align 4, !dbg !7028, !tbaa !5744
  %45 = call noundef i32 @_ZNK6Halide7Runtime6BufferItLi2ELi2EE10dimensionsEv(%"class.Halide::Runtime::Buffer"* noundef nonnull align 8 dereferenceable(104) %10), !dbg !7030
  %46 = icmp slt i32 %44, %45, !dbg !7031
  br i1 %46, label %49, label %47, !dbg !7032

47:                                               ; preds = %43
  %48 = bitcast i32* %7 to i8*, !dbg !7033
  call void @llvm.lifetime.end.p0i8(i64 4, i8* %48) #32, !dbg !7033
  br label %62

49:                                               ; preds = %43
  %50 = bitcast %"class.Halide::Runtime::Buffer<unsigned short, 2, 2>::Dimension"* %8 to i8*, !dbg !7034
  call void @llvm.lifetime.start.p0i8(i64 8, i8* %50) #32, !dbg !7034
  %51 = load i32, i32* %7, align 4, !dbg !7036, !tbaa !5744
  %52 = call %struct.halide_dimension_t* @_ZNK6Halide7Runtime6BufferItLi2ELi2EE3dimEi(%"class.Halide::Runtime::Buffer"* noundef nonnull align 8 dereferenceable(104) %10, i32 noundef %51), !dbg !7034
  %53 = getelementptr inbounds %"class.Halide::Runtime::Buffer<unsigned short, 2, 2>::Dimension", %"class.Halide::Runtime::Buffer<unsigned short, 2, 2>::Dimension"* %8, i32 0, i32 0, !dbg !7034
  store %struct.halide_dimension_t* %52, %struct.halide_dimension_t** %53, align 8, !dbg !7034
  %54 = call noundef i32 @_ZNK6Halide7Runtime6BufferItLi2ELi2EE9Dimension6extentEv(%"class.Halide::Runtime::Buffer<unsigned short, 2, 2>::Dimension"* noundef nonnull align 8 dereferenceable(8) %8), !dbg !7037
  %55 = sext i32 %54 to i64, !dbg !7034
  %56 = load i64, i64* %3, align 8, !dbg !7038, !tbaa !7002
  %57 = udiv i64 %56, %55, !dbg !7038
  store i64 %57, i64* %3, align 8, !dbg !7038, !tbaa !7002
  %58 = bitcast %"class.Halide::Runtime::Buffer<unsigned short, 2, 2>::Dimension"* %8 to i8*, !dbg !7039
  call void @llvm.lifetime.end.p0i8(i64 8, i8* %58) #32, !dbg !7039
  br label %59, !dbg !7040

59:                                               ; preds = %49
  %60 = load i32, i32* %7, align 4, !dbg !7041, !tbaa !5744
  %61 = add nsw i32 %60, 1, !dbg !7041
  store i32 %61, i32* %7, align 4, !dbg !7041, !tbaa !5744
  br label %43, !dbg !7033, !llvm.loop !7042

62:                                               ; preds = %47
  %63 = load i64, i64* %3, align 8, !dbg !7044, !tbaa !7002
  %64 = bitcast %struct.halide_type_t* %9 to i8*, !dbg !7044
  call void @llvm.lifetime.start.p0i8(i64 4, i8* %64) #32, !dbg !7044
  %65 = call i32 @_ZNK6Halide7Runtime6BufferItLi2ELi2EE4typeEv(%"class.Halide::Runtime::Buffer"* noundef nonnull align 8 dereferenceable(104) %10), !dbg !7044
  %66 = bitcast %struct.halide_type_t* %9 to i32*, !dbg !7044
  store i32 %65, i32* %66, align 2, !dbg !7044
  %67 = call noundef i32 @_ZNK13halide_type_t5bytesEv(%struct.halide_type_t* noundef nonnull align 2 dereferenceable(4) %9), !dbg !7044
  %68 = sext i32 %67 to i64, !dbg !7044
  %69 = icmp eq i64 %63, %68, !dbg !7044
  br i1 %69, label %70, label %71, !dbg !7044

70:                                               ; preds = %62
  br label %71

71:                                               ; preds = %70, %62
  %72 = phi i1 [ false, %62 ], [ true, %70 ], !dbg !6997
  %73 = xor i1 %72, true, !dbg !7044
  %74 = zext i1 %73 to i64, !dbg !7044
  %75 = call i64 @llvm.expect.i64(i64 %74, i64 0), !dbg !7044
  %76 = icmp ne i64 %75, 0, !dbg !7044
  br i1 %76, label %77, label %79, !dbg !7044

77:                                               ; preds = %71
  call void @__assert_rtn(i8* noundef getelementptr inbounds ([15 x i8], [15 x i8]* @__func__._ZN6Halide7Runtime6BufferItLi2ELi2EE14check_overflowEv, i64 0, i64 0), i8* noundef getelementptr inbounds ([15 x i8], [15 x i8]* @.str.5, i64 0, i64 0), i32 noundef 873, i8* noundef getelementptr inbounds ([84 x i8], [84 x i8]* @.str.8, i64 0, i64 0)) #33, !dbg !7044
  unreachable, !dbg !7044

78:                                               ; No predecessors!
  br label %80, !dbg !7044

79:                                               ; preds = %71
  br label %80, !dbg !7044

80:                                               ; preds = %79, %78
  %81 = bitcast %struct.halide_type_t* %9 to i8*, !dbg !7044
  call void @llvm.lifetime.end.p0i8(i64 4, i8* %81) #32, !dbg !7044
  %82 = bitcast i64* %3 to i8*, !dbg !7045
  call void @llvm.lifetime.end.p0i8(i64 8, i8* %82) #32, !dbg !7045
  ret void, !dbg !7045
}

; Function Attrs: mustprogress ssp uwtable
define linkonce_odr hidden void @_ZN6Halide7Runtime6BufferItLi2ELi2EE8allocateEPFPvmEPFvS3_E(%"class.Halide::Runtime::Buffer"* noundef nonnull align 8 dereferenceable(104) %0, i8* (i64)* noundef %1, void (i8*)* noundef %2) #0 align 2 !dbg !7046 {
  %4 = alloca %"class.Halide::Runtime::Buffer"*, align 8
  %5 = alloca i8* (i64)*, align 8
  %6 = alloca void (i8*)*, align 8
  %7 = alloca i64, align 8
  %8 = alloca %class.anon.4, align 1
  %9 = alloca i64, align 8
  %10 = alloca i64, align 8
  %11 = alloca i32, align 4
  %12 = alloca i32, align 4
  %13 = alloca i8*, align 8
  %14 = alloca i8*, align 8
  store %"class.Halide::Runtime::Buffer"* %0, %"class.Halide::Runtime::Buffer"** %4, align 8, !tbaa !5701
  call void @llvm.dbg.declare(metadata %"class.Halide::Runtime::Buffer"** %4, metadata !7048, metadata !DIExpression()), !dbg !7065
  store i8* (i64)* %1, i8* (i64)** %5, align 8, !tbaa !5701
  call void @llvm.dbg.declare(metadata i8* (i64)** %5, metadata !7049, metadata !DIExpression()), !dbg !7066
  store void (i8*)* %2, void (i8*)** %6, align 8, !tbaa !5701
  call void @llvm.dbg.declare(metadata void (i8*)** %6, metadata !7050, metadata !DIExpression()), !dbg !7067
  %15 = load %"class.Halide::Runtime::Buffer"*, %"class.Halide::Runtime::Buffer"** %4, align 8
  call void @_ZN6Halide7Runtime6BufferItLi2ELi2EE10deallocateEv(%"class.Halide::Runtime::Buffer"* noundef nonnull align 8 dereferenceable(104) %15), !dbg !7068
  %16 = bitcast i64* %7 to i8*, !dbg !7069
  call void @llvm.lifetime.start.p0i8(i64 8, i8* %16) #32, !dbg !7069
  call void @llvm.dbg.declare(metadata i64* %7, metadata !7051, metadata !DIExpression()), !dbg !7070
  store i64 128, i64* %7, align 8, !dbg !7070, !tbaa !7002
  %17 = bitcast %class.anon.4* %8 to i8*, !dbg !7071
  call void @llvm.lifetime.start.p0i8(i64 1, i8* %17) #32, !dbg !7071
  call void @llvm.dbg.declare(metadata %class.anon.4* %8, metadata !7053, metadata !DIExpression()), !dbg !7072
  %18 = bitcast i64* %9 to i8*, !dbg !7073
  call void @llvm.lifetime.start.p0i8(i64 8, i8* %18) #32, !dbg !7073
  call void @llvm.dbg.declare(metadata i64* %9, metadata !7061, metadata !DIExpression()), !dbg !7074
  %19 = call noundef i64 @_ZNK6Halide7Runtime6BufferItLi2ELi2EE13size_in_bytesEv(%"class.Halide::Runtime::Buffer"* noundef nonnull align 8 dereferenceable(104) %15), !dbg !7075
  store i64 %19, i64* %9, align 8, !dbg !7074, !tbaa !7002
  %20 = load i8* (i64)*, i8* (i64)** %5, align 8, !dbg !7076, !tbaa !5701
  %21 = icmp ne i8* (i64)* %20, null, !dbg !7076
  br i1 %21, label %23, label %22, !dbg !7078

22:                                               ; preds = %3
  store i8* (i64)* @malloc, i8* (i64)** %5, align 8, !dbg !7079, !tbaa !5701
  br label %23, !dbg !7081

23:                                               ; preds = %22, %3
  %24 = load void (i8*)*, void (i8*)** %6, align 8, !dbg !7082, !tbaa !5701
  %25 = icmp ne void (i8*)* %24, null, !dbg !7082
  br i1 %25, label %27, label %26, !dbg !7084

26:                                               ; preds = %23
  store void (i8*)* @free, void (i8*)** %6, align 8, !dbg !7085, !tbaa !5701
  br label %27, !dbg !7087

27:                                               ; preds = %26, %23
  %28 = bitcast i64* %10 to i8*, !dbg !7088
  call void @llvm.lifetime.start.p0i8(i64 8, i8* %28) #32, !dbg !7088
  call void @llvm.dbg.declare(metadata i64* %10, metadata !7062, metadata !DIExpression()), !dbg !7089
  %29 = load i64, i64* %9, align 8, !dbg !7090, !tbaa !7002
  %30 = add i64 %29, 128, !dbg !7091
  %31 = bitcast i32* %11 to i8*, !dbg !7092
  call void @llvm.lifetime.start.p0i8(i64 4, i8* %31) #32, !dbg !7092
  store i32 0, i32* %11, align 4, !dbg !7092, !tbaa !5744
  %32 = bitcast i32* %12 to i8*, !dbg !7093
  call void @llvm.lifetime.start.p0i8(i64 4, i8* %32) #32, !dbg !7093
  store i32 0, i32* %12, align 4, !dbg !7093, !tbaa !5744
  %33 = call noundef nonnull align 4 dereferenceable(4) i32* @_ZNSt3__13maxIiEERKT_S3_S3_(i32* noundef nonnull align 4 dereferenceable(4) %11, i32* noundef nonnull align 4 dereferenceable(4) %12), !dbg !7094
  %34 = load i32, i32* %33, align 4, !dbg !7094, !tbaa !5744
  %35 = sext i32 %34 to i64, !dbg !7094
  %36 = add i64 %30, %35, !dbg !7095
  %37 = call noundef i64 @_ZZN6Halide7Runtime6BufferItLi2ELi2EE8allocateEPFPvmEPFvS3_EENKUlmE_clEm(%class.anon.4* noundef nonnull align 1 dereferenceable(1) %8, i64 noundef %36), !dbg !7096
  %38 = bitcast i32* %12 to i8*, !dbg !7096
  call void @llvm.lifetime.end.p0i8(i64 4, i8* %38) #32, !dbg !7096
  %39 = bitcast i32* %11 to i8*, !dbg !7096
  call void @llvm.lifetime.end.p0i8(i64 4, i8* %39) #32, !dbg !7096
  store i64 %37, i64* %10, align 8, !dbg !7089, !tbaa !7002
  %40 = bitcast i8** %13 to i8*, !dbg !7097
  call void @llvm.lifetime.start.p0i8(i64 8, i8* %40) #32, !dbg !7097
  call void @llvm.dbg.declare(metadata i8** %13, metadata !7063, metadata !DIExpression()), !dbg !7098
  %41 = load i8* (i64)*, i8* (i64)** %5, align 8, !dbg !7099, !tbaa !5701
  %42 = load i64, i64* %10, align 8, !dbg !7100, !tbaa !7002
  %43 = call noundef i8* %41(i64 noundef %42), !dbg !7099
  store i8* %43, i8** %13, align 8, !dbg !7098, !tbaa !5701
  %44 = load i8*, i8** %13, align 8, !dbg !7101, !tbaa !5701
  %45 = bitcast i8* %44 to %"struct.Halide::Runtime::AllocationHeader"*, !dbg !7102
  %46 = load void (i8*)*, void (i8*)** %6, align 8, !dbg !7103, !tbaa !5701
  call void @_ZN6Halide7Runtime16AllocationHeaderC1EPFvPvE(%"struct.Halide::Runtime::AllocationHeader"* noundef nonnull align 8 dereferenceable(12) %45, void (i8*)* noundef %46), !dbg !7104
  %47 = getelementptr inbounds %"class.Halide::Runtime::Buffer", %"class.Halide::Runtime::Buffer"* %15, i32 0, i32 2, !dbg !7105
  store %"struct.Halide::Runtime::AllocationHeader"* %45, %"struct.Halide::Runtime::AllocationHeader"** %47, align 8, !dbg !7106, !tbaa !6828
  %48 = bitcast i8** %14 to i8*, !dbg !7107
  call void @llvm.lifetime.start.p0i8(i64 8, i8* %48) #32, !dbg !7107
  call void @llvm.dbg.declare(metadata i8** %14, metadata !7064, metadata !DIExpression()), !dbg !7108
  %49 = getelementptr inbounds %"class.Halide::Runtime::Buffer", %"class.Halide::Runtime::Buffer"* %15, i32 0, i32 2, !dbg !7109
  %50 = load %"struct.Halide::Runtime::AllocationHeader"*, %"struct.Halide::Runtime::AllocationHeader"** %49, align 8, !dbg !7109, !tbaa !6828
  %51 = bitcast %"struct.Halide::Runtime::AllocationHeader"* %50 to i8*, !dbg !7110
  %52 = getelementptr inbounds i8, i8* %51, i64 16, !dbg !7111
  store i8* %52, i8** %14, align 8, !dbg !7108, !tbaa !5701
  %53 = load i8*, i8** %14, align 8, !dbg !7112, !tbaa !5701
  %54 = ptrtoint i8* %53 to i64, !dbg !7113
  %55 = call noundef i64 @_ZZN6Halide7Runtime6BufferItLi2ELi2EE8allocateEPFPvmEPFvS3_EENKUlmE_clEm(%class.anon.4* noundef nonnull align 1 dereferenceable(1) %8, i64 noundef %54), !dbg !7114
  %56 = inttoptr i64 %55 to i8*, !dbg !7115
  %57 = getelementptr inbounds %"class.Halide::Runtime::Buffer", %"class.Halide::Runtime::Buffer"* %15, i32 0, i32 0, !dbg !7116
  %58 = getelementptr inbounds %struct.halide_buffer_t, %struct.halide_buffer_t* %57, i32 0, i32 2, !dbg !7117
  store i8* %56, i8** %58, align 8, !dbg !7118, !tbaa !7119
  %59 = bitcast i8** %14 to i8*, !dbg !7120
  call void @llvm.lifetime.end.p0i8(i64 8, i8* %59) #32, !dbg !7120
  %60 = bitcast i8** %13 to i8*, !dbg !7120
  call void @llvm.lifetime.end.p0i8(i64 8, i8* %60) #32, !dbg !7120
  %61 = bitcast i64* %10 to i8*, !dbg !7120
  call void @llvm.lifetime.end.p0i8(i64 8, i8* %61) #32, !dbg !7120
  %62 = bitcast i64* %9 to i8*, !dbg !7120
  call void @llvm.lifetime.end.p0i8(i64 8, i8* %62) #32, !dbg !7120
  %63 = bitcast %class.anon.4* %8 to i8*, !dbg !7120
  call void @llvm.lifetime.end.p0i8(i64 1, i8* %63) #32, !dbg !7120
  %64 = bitcast i64* %7 to i8*, !dbg !7120
  call void @llvm.lifetime.end.p0i8(i64 8, i8* %64) #32, !dbg !7120
  ret void, !dbg !7120
}

; Function Attrs: alwaysinline nounwind ssp uwtable
define linkonce_odr hidden void @_ZN13halide_type_tC2Ev(%struct.halide_type_t* noundef nonnull align 2 dereferenceable(4) %0) unnamed_addr #22 align 2 !dbg !7121 {
  %2 = alloca %struct.halide_type_t*, align 8
  store %struct.halide_type_t* %0, %struct.halide_type_t** %2, align 8, !tbaa !5701
  call void @llvm.dbg.declare(metadata %struct.halide_type_t** %2, metadata !7123, metadata !DIExpression()), !dbg !7124
  %3 = load %struct.halide_type_t*, %struct.halide_type_t** %2, align 8
  %4 = getelementptr inbounds %struct.halide_type_t, %struct.halide_type_t* %3, i32 0, i32 0, !dbg !7125
  store i8 0, i8* %4, align 2, !dbg !7125, !tbaa !7126
  %5 = getelementptr inbounds %struct.halide_type_t, %struct.halide_type_t* %3, i32 0, i32 1, !dbg !7127
  store i8 0, i8* %5, align 1, !dbg !7127, !tbaa !7128
  %6 = getelementptr inbounds %struct.halide_type_t, %struct.halide_type_t* %3, i32 0, i32 2, !dbg !7129
  store i16 0, i16* %6, align 2, !dbg !7129, !tbaa !7130
  ret void, !dbg !7131
}

; Function Attrs: alwaysinline nounwind ssp uwtable
define linkonce_odr hidden void @_ZN18halide_dimension_tC2Ev(%struct.halide_dimension_t* noundef nonnull align 4 dereferenceable(16) %0) unnamed_addr #22 align 2 !dbg !7132 {
  %2 = alloca %struct.halide_dimension_t*, align 8
  store %struct.halide_dimension_t* %0, %struct.halide_dimension_t** %2, align 8, !tbaa !5701
  call void @llvm.dbg.declare(metadata %struct.halide_dimension_t** %2, metadata !7134, metadata !DIExpression()), !dbg !7135
  %3 = load %struct.halide_dimension_t*, %struct.halide_dimension_t** %2, align 8
  %4 = getelementptr inbounds %struct.halide_dimension_t, %struct.halide_dimension_t* %3, i32 0, i32 0, !dbg !7136
  store i32 0, i32* %4, align 4, !dbg !7136, !tbaa !6912
  %5 = getelementptr inbounds %struct.halide_dimension_t, %struct.halide_dimension_t* %3, i32 0, i32 1, !dbg !7137
  store i32 0, i32* %5, align 4, !dbg !7137, !tbaa !6783
  %6 = getelementptr inbounds %struct.halide_dimension_t, %struct.halide_dimension_t* %3, i32 0, i32 2, !dbg !7138
  store i32 0, i32* %6, align 4, !dbg !7138, !tbaa !6930
  %7 = getelementptr inbounds %struct.halide_dimension_t, %struct.halide_dimension_t* %3, i32 0, i32 3, !dbg !7139
  store i32 0, i32* %7, align 4, !dbg !7139, !tbaa !7140
  ret void, !dbg !7141
}

; Function Attrs: alwaysinline mustprogress ssp uwtable
define linkonce_odr hidden i32 @_Z14halide_type_ofItE13halide_type_tv() #9 !dbg !7142 {
  %1 = alloca %struct.halide_type_t, align 2
  call void @_ZN13halide_type_tC1E18halide_type_code_tht(%struct.halide_type_t* noundef nonnull align 2 dereferenceable(4) %1, i8 noundef zeroext 1, i8 noundef zeroext 16, i16 noundef zeroext 1), !dbg !7144
  %2 = bitcast %struct.halide_type_t* %1 to i32*, !dbg !7145
  %3 = load i32, i32* %2, align 2, !dbg !7145
  ret i32 %3, !dbg !7145
}

; Function Attrs: alwaysinline ssp uwtable
define linkonce_odr hidden void @_ZN13halide_type_tC1E18halide_type_code_tht(%struct.halide_type_t* noundef nonnull align 2 dereferenceable(4) %0, i8 noundef zeroext %1, i8 noundef zeroext %2, i16 noundef zeroext %3) unnamed_addr #21 align 2 !dbg !7146 {
  %5 = alloca %struct.halide_type_t*, align 8
  %6 = alloca i8, align 1
  %7 = alloca i8, align 1
  %8 = alloca i16, align 2
  store %struct.halide_type_t* %0, %struct.halide_type_t** %5, align 8, !tbaa !5701
  call void @llvm.dbg.declare(metadata %struct.halide_type_t** %5, metadata !7148, metadata !DIExpression()), !dbg !7152
  store i8 %1, i8* %6, align 1, !tbaa !6841
  call void @llvm.dbg.declare(metadata i8* %6, metadata !7149, metadata !DIExpression()), !dbg !7153
  store i8 %2, i8* %7, align 1, !tbaa !6842
  call void @llvm.dbg.declare(metadata i8* %7, metadata !7150, metadata !DIExpression()), !dbg !7154
  store i16 %3, i16* %8, align 2, !tbaa !6213
  call void @llvm.dbg.declare(metadata i16* %8, metadata !7151, metadata !DIExpression()), !dbg !7155
  %9 = load %struct.halide_type_t*, %struct.halide_type_t** %5, align 8
  %10 = load i8, i8* %6, align 1, !dbg !7156, !tbaa !6841
  %11 = load i8, i8* %7, align 1, !dbg !7156, !tbaa !6842
  %12 = load i16, i16* %8, align 2, !dbg !7156, !tbaa !6213
  call void @_ZN13halide_type_tC2E18halide_type_code_tht(%struct.halide_type_t* noundef nonnull align 2 dereferenceable(4) %9, i8 noundef zeroext %10, i8 noundef zeroext %11, i16 noundef zeroext %12), !dbg !7156
  ret void, !dbg !7157
}

; Function Attrs: alwaysinline nounwind ssp uwtable
define linkonce_odr hidden void @_ZN13halide_type_tC2E18halide_type_code_tht(%struct.halide_type_t* noundef nonnull align 2 dereferenceable(4) %0, i8 noundef zeroext %1, i8 noundef zeroext %2, i16 noundef zeroext %3) unnamed_addr #22 align 2 !dbg !7158 {
  %5 = alloca %struct.halide_type_t*, align 8
  %6 = alloca i8, align 1
  %7 = alloca i8, align 1
  %8 = alloca i16, align 2
  store %struct.halide_type_t* %0, %struct.halide_type_t** %5, align 8, !tbaa !5701
  call void @llvm.dbg.declare(metadata %struct.halide_type_t** %5, metadata !7160, metadata !DIExpression()), !dbg !7164
  store i8 %1, i8* %6, align 1, !tbaa !6841
  call void @llvm.dbg.declare(metadata i8* %6, metadata !7161, metadata !DIExpression()), !dbg !7165
  store i8 %2, i8* %7, align 1, !tbaa !6842
  call void @llvm.dbg.declare(metadata i8* %7, metadata !7162, metadata !DIExpression()), !dbg !7166
  store i16 %3, i16* %8, align 2, !tbaa !6213
  call void @llvm.dbg.declare(metadata i16* %8, metadata !7163, metadata !DIExpression()), !dbg !7167
  %9 = load %struct.halide_type_t*, %struct.halide_type_t** %5, align 8
  %10 = getelementptr inbounds %struct.halide_type_t, %struct.halide_type_t* %9, i32 0, i32 0, !dbg !7168
  %11 = load i8, i8* %6, align 1, !dbg !7169, !tbaa !6841
  store i8 %11, i8* %10, align 2, !dbg !7168, !tbaa !7126
  %12 = getelementptr inbounds %struct.halide_type_t, %struct.halide_type_t* %9, i32 0, i32 1, !dbg !7170
  %13 = load i8, i8* %7, align 1, !dbg !7171, !tbaa !6842
  store i8 %13, i8* %12, align 1, !dbg !7170, !tbaa !7128
  %14 = getelementptr inbounds %struct.halide_type_t, %struct.halide_type_t* %9, i32 0, i32 2, !dbg !7172
  %15 = load i16, i16* %8, align 2, !dbg !7173, !tbaa !6213
  store i16 %15, i16* %14, align 2, !dbg !7172, !tbaa !7130
  ret void, !dbg !7174
}

; Function Attrs: mustprogress nounwind ssp uwtable
define linkonce_odr hidden i32 @_ZNK6Halide7Runtime6BufferItLi2ELi2EE4typeEv(%"class.Halide::Runtime::Buffer"* noundef nonnull align 8 dereferenceable(104) %0) #7 align 2 !dbg !7175 {
  %2 = alloca %struct.halide_type_t, align 2
  %3 = alloca %"class.Halide::Runtime::Buffer"*, align 8
  store %"class.Halide::Runtime::Buffer"* %0, %"class.Halide::Runtime::Buffer"** %3, align 8, !tbaa !5701
  call void @llvm.dbg.declare(metadata %"class.Halide::Runtime::Buffer"** %3, metadata !7177, metadata !DIExpression()), !dbg !7178
  %4 = load %"class.Halide::Runtime::Buffer"*, %"class.Halide::Runtime::Buffer"** %3, align 8
  %5 = getelementptr inbounds %"class.Halide::Runtime::Buffer", %"class.Halide::Runtime::Buffer"* %4, i32 0, i32 0, !dbg !7179
  %6 = getelementptr inbounds %struct.halide_buffer_t, %struct.halide_buffer_t* %5, i32 0, i32 4, !dbg !7180
  %7 = bitcast %struct.halide_type_t* %2 to i8*, !dbg !7179
  %8 = bitcast %struct.halide_type_t* %6 to i8*, !dbg !7179
  call void @llvm.memcpy.p0i8.p0i8.i64(i8* align 2 %7, i8* align 8 %8, i64 4, i1 false), !dbg !7179, !tbaa.struct !6840
  %9 = bitcast %struct.halide_type_t* %2 to i32*, !dbg !7181
  %10 = load i32, i32* %9, align 2, !dbg !7181
  ret i32 %10, !dbg !7181
}

; Function Attrs: alwaysinline mustprogress nounwind ssp uwtable
define linkonce_odr hidden noundef i32 @_ZNK13halide_type_t5bytesEv(%struct.halide_type_t* noundef nonnull align 2 dereferenceable(4) %0) #18 align 2 !dbg !7182 {
  %2 = alloca %struct.halide_type_t*, align 8
  store %struct.halide_type_t* %0, %struct.halide_type_t** %2, align 8, !tbaa !5701
  call void @llvm.dbg.declare(metadata %struct.halide_type_t** %2, metadata !7184, metadata !DIExpression()), !dbg !7186
  %3 = load %struct.halide_type_t*, %struct.halide_type_t** %2, align 8
  %4 = getelementptr inbounds %struct.halide_type_t, %struct.halide_type_t* %3, i32 0, i32 1, !dbg !7187
  %5 = load i8, i8* %4, align 1, !dbg !7187, !tbaa !7128
  %6 = zext i8 %5 to i32, !dbg !7187
  %7 = add nsw i32 %6, 7, !dbg !7188
  %8 = sdiv i32 %7, 8, !dbg !7189
  ret i32 %8, !dbg !7190
}

; Function Attrs: mustprogress ssp uwtable
define linkonce_odr hidden void @_ZN6Halide7Runtime6BufferItLi2ELi2EE10deallocateEv(%"class.Halide::Runtime::Buffer"* noundef nonnull align 8 dereferenceable(104) %0) #0 align 2 !dbg !7191 {
  %2 = alloca %"class.Halide::Runtime::Buffer"*, align 8
  store %"class.Halide::Runtime::Buffer"* %0, %"class.Halide::Runtime::Buffer"** %2, align 8, !tbaa !5701
  call void @llvm.dbg.declare(metadata %"class.Halide::Runtime::Buffer"** %2, metadata !7193, metadata !DIExpression()), !dbg !7194
  %3 = load %"class.Halide::Runtime::Buffer"*, %"class.Halide::Runtime::Buffer"** %2, align 8
  call void @_ZN6Halide7Runtime6BufferItLi2ELi2EE6decrefEb(%"class.Halide::Runtime::Buffer"* noundef nonnull align 8 dereferenceable(104) %3, i1 noundef zeroext false), !dbg !7195
  ret void, !dbg !7196
}

; Function Attrs: mustprogress ssp uwtable
define linkonce_odr hidden noundef i64 @_ZNK6Halide7Runtime6BufferItLi2ELi2EE13size_in_bytesEv(%"class.Halide::Runtime::Buffer"* noundef nonnull align 8 dereferenceable(104) %0) #0 align 2 !dbg !7197 {
  %2 = alloca %"class.Halide::Runtime::Buffer"*, align 8
  store %"class.Halide::Runtime::Buffer"* %0, %"class.Halide::Runtime::Buffer"** %2, align 8, !tbaa !5701
  call void @llvm.dbg.declare(metadata %"class.Halide::Runtime::Buffer"** %2, metadata !7199, metadata !DIExpression()), !dbg !7200
  %3 = load %"class.Halide::Runtime::Buffer"*, %"class.Halide::Runtime::Buffer"** %2, align 8
  %4 = getelementptr inbounds %"class.Halide::Runtime::Buffer", %"class.Halide::Runtime::Buffer"* %3, i32 0, i32 0, !dbg !7201
  %5 = call noundef i64 @_ZNK15halide_buffer_t13size_in_bytesEv(%struct.halide_buffer_t* noundef nonnull align 8 dereferenceable(56) %4), !dbg !7202
  ret i64 %5, !dbg !7203
}

; Function Attrs: allocsize(0)
declare i8* @malloc(i64 noundef) #23

declare void @free(i8* noundef) #6

; Function Attrs: inlinehint mustprogress nounwind ssp uwtable
define linkonce_odr hidden noundef i64 @_ZZN6Halide7Runtime6BufferItLi2ELi2EE8allocateEPFPvmEPFvS3_EENKUlmE_clEm(%class.anon.4* noundef nonnull align 1 dereferenceable(1) %0, i64 noundef %1) #11 align 2 !dbg !7204 {
  %3 = alloca %class.anon.4*, align 8
  %4 = alloca i64, align 8
  store %class.anon.4* %0, %class.anon.4** %3, align 8, !tbaa !5701
  call void @llvm.dbg.declare(metadata %class.anon.4** %3, metadata !7206, metadata !DIExpression()), !dbg !7209
  store i64 %1, i64* %4, align 8, !tbaa !7002
  call void @llvm.dbg.declare(metadata i64* %4, metadata !7208, metadata !DIExpression()), !dbg !7210
  %5 = load %class.anon.4*, %class.anon.4** %3, align 8
  %6 = load i64, i64* %4, align 8, !dbg !7211, !tbaa !7002
  %7 = add i64 %6, 128, !dbg !7212
  %8 = sub i64 %7, 1, !dbg !7213
  %9 = and i64 %8, -128, !dbg !7214
  ret i64 %9, !dbg !7215
}

; Function Attrs: inlinehint mustprogress ssp uwtable
define linkonce_odr hidden noundef nonnull align 4 dereferenceable(4) i32* @_ZNSt3__13maxIiEERKT_S3_S3_(i32* noundef nonnull align 4 dereferenceable(4) %0, i32* noundef nonnull align 4 dereferenceable(4) %1) #4 !dbg !7216 {
  %3 = alloca i32*, align 8
  %4 = alloca i32*, align 8
  %5 = alloca %"struct.std::__1::__less.5", align 1
  store i32* %0, i32** %3, align 8, !tbaa !5701
  call void @llvm.dbg.declare(metadata i32** %3, metadata !7221, metadata !DIExpression()), !dbg !7223
  store i32* %1, i32** %4, align 8, !tbaa !5701
  call void @llvm.dbg.declare(metadata i32** %4, metadata !7222, metadata !DIExpression()), !dbg !7224
  %6 = load i32*, i32** %3, align 8, !dbg !7225, !tbaa !5701
  %7 = load i32*, i32** %4, align 8, !dbg !7226, !tbaa !5701
  %8 = call noundef nonnull align 4 dereferenceable(4) i32* @_ZNSt3__13maxIiNS_6__lessIiiEEEERKT_S5_S5_T0_(i32* noundef nonnull align 4 dereferenceable(4) %6, i32* noundef nonnull align 4 dereferenceable(4) %7), !dbg !7227
  ret i32* %8, !dbg !7228
}

; Function Attrs: ssp uwtable
define linkonce_odr hidden void @_ZN6Halide7Runtime16AllocationHeaderC1EPFvPvE(%"struct.Halide::Runtime::AllocationHeader"* noundef nonnull align 8 dereferenceable(12) %0, void (i8*)* noundef %1) unnamed_addr #3 align 2 !dbg !7229 {
  %3 = alloca %"struct.Halide::Runtime::AllocationHeader"*, align 8
  %4 = alloca void (i8*)*, align 8
  store %"struct.Halide::Runtime::AllocationHeader"* %0, %"struct.Halide::Runtime::AllocationHeader"** %3, align 8, !tbaa !5701
  call void @llvm.dbg.declare(metadata %"struct.Halide::Runtime::AllocationHeader"** %3, metadata !7231, metadata !DIExpression()), !dbg !7233
  store void (i8*)* %1, void (i8*)** %4, align 8, !tbaa !5701
  call void @llvm.dbg.declare(metadata void (i8*)** %4, metadata !7232, metadata !DIExpression()), !dbg !7234
  %5 = load %"struct.Halide::Runtime::AllocationHeader"*, %"struct.Halide::Runtime::AllocationHeader"** %3, align 8
  %6 = load void (i8*)*, void (i8*)** %4, align 8, !dbg !7235, !tbaa !5701
  call void @_ZN6Halide7Runtime16AllocationHeaderC2EPFvPvE(%"struct.Halide::Runtime::AllocationHeader"* noundef nonnull align 8 dereferenceable(12) %5, void (i8*)* noundef %6), !dbg !7235
  ret void, !dbg !7236
}

; Function Attrs: mustprogress ssp uwtable
define linkonce_odr hidden void @_ZN6Halide7Runtime6BufferItLi2ELi2EE6decrefEb(%"class.Halide::Runtime::Buffer"* noundef nonnull align 8 dereferenceable(104) %0, i1 noundef zeroext %1) #0 align 2 !dbg !7237 {
  %3 = alloca %"class.Halide::Runtime::Buffer"*, align 8
  %4 = alloca i8, align 1
  %5 = alloca i32, align 4
  %6 = alloca void (i8*)*, align 8
  %7 = alloca i32, align 4
  %8 = alloca i32, align 4
  store %"class.Halide::Runtime::Buffer"* %0, %"class.Halide::Runtime::Buffer"** %3, align 8, !tbaa !5701
  call void @llvm.dbg.declare(metadata %"class.Halide::Runtime::Buffer"** %3, metadata !7239, metadata !DIExpression()), !dbg !7253
  %9 = zext i1 %1 to i8
  store i8 %9, i8* %4, align 1, !tbaa !6176
  call void @llvm.dbg.declare(metadata i8* %4, metadata !7240, metadata !DIExpression()), !dbg !7254
  %10 = load %"class.Halide::Runtime::Buffer"*, %"class.Halide::Runtime::Buffer"** %3, align 8
  %11 = call noundef zeroext i1 @_ZNK6Halide7Runtime6BufferItLi2ELi2EE16owns_host_memoryEv(%"class.Halide::Runtime::Buffer"* noundef nonnull align 8 dereferenceable(104) %10), !dbg !7255
  br i1 %11, label %12, label %42, !dbg !7256

12:                                               ; preds = %2
  %13 = load i8, i8* %4, align 1, !dbg !7257, !tbaa !6176, !range !6181
  %14 = trunc i8 %13 to i1, !dbg !7257
  br i1 %14, label %42, label %15, !dbg !7258

15:                                               ; preds = %12
  %16 = bitcast i32* %5 to i8*, !dbg !7259
  call void @llvm.lifetime.start.p0i8(i64 4, i8* %16) #32, !dbg !7259
  call void @llvm.dbg.declare(metadata i32* %5, metadata !7241, metadata !DIExpression()), !dbg !7260
  %17 = getelementptr inbounds %"class.Halide::Runtime::Buffer", %"class.Halide::Runtime::Buffer"* %10, i32 0, i32 2, !dbg !7261
  %18 = load %"struct.Halide::Runtime::AllocationHeader"*, %"struct.Halide::Runtime::AllocationHeader"** %17, align 8, !dbg !7261, !tbaa !6828
  %19 = getelementptr inbounds %"struct.Halide::Runtime::AllocationHeader", %"struct.Halide::Runtime::AllocationHeader"* %18, i32 0, i32 1, !dbg !7262
  %20 = bitcast %"struct.std::__1::atomic"* %19 to %"struct.std::__1::__atomic_base"*, !dbg !7263
  %21 = call noundef i32 @_ZNSt3__113__atomic_baseIiLb1EEmmEv(%"struct.std::__1::__atomic_base"* noundef nonnull align 4 dereferenceable(4) %20) #32, !dbg !7264
  store i32 %21, i32* %5, align 4, !dbg !7260, !tbaa !5744
  %22 = load i32, i32* %5, align 4, !dbg !7265, !tbaa !5744
  %23 = icmp eq i32 %22, 0, !dbg !7266
  br i1 %23, label %24, label %37, !dbg !7267

24:                                               ; preds = %15
  %25 = bitcast void (i8*)** %6 to i8*, !dbg !7268
  call void @llvm.lifetime.start.p0i8(i64 8, i8* %25) #32, !dbg !7268
  call void @llvm.dbg.declare(metadata void (i8*)** %6, metadata !7244, metadata !DIExpression()), !dbg !7269
  %26 = getelementptr inbounds %"class.Halide::Runtime::Buffer", %"class.Halide::Runtime::Buffer"* %10, i32 0, i32 2, !dbg !7270
  %27 = load %"struct.Halide::Runtime::AllocationHeader"*, %"struct.Halide::Runtime::AllocationHeader"** %26, align 8, !dbg !7270, !tbaa !6828
  %28 = getelementptr inbounds %"struct.Halide::Runtime::AllocationHeader", %"struct.Halide::Runtime::AllocationHeader"* %27, i32 0, i32 0, !dbg !7271
  %29 = load void (i8*)*, void (i8*)** %28, align 8, !dbg !7271, !tbaa !7272
  store void (i8*)* %29, void (i8*)** %6, align 8, !dbg !7269, !tbaa !5701
  %30 = getelementptr inbounds %"class.Halide::Runtime::Buffer", %"class.Halide::Runtime::Buffer"* %10, i32 0, i32 2, !dbg !7275
  %31 = load %"struct.Halide::Runtime::AllocationHeader"*, %"struct.Halide::Runtime::AllocationHeader"** %30, align 8, !dbg !7275, !tbaa !6828
  %32 = load void (i8*)*, void (i8*)** %6, align 8, !dbg !7276, !tbaa !5701
  %33 = getelementptr inbounds %"class.Halide::Runtime::Buffer", %"class.Halide::Runtime::Buffer"* %10, i32 0, i32 2, !dbg !7277
  %34 = load %"struct.Halide::Runtime::AllocationHeader"*, %"struct.Halide::Runtime::AllocationHeader"** %33, align 8, !dbg !7277, !tbaa !6828
  %35 = bitcast %"struct.Halide::Runtime::AllocationHeader"* %34 to i8*, !dbg !7277
  call void %32(i8* noundef %35), !dbg !7276
  %36 = bitcast void (i8*)** %6 to i8*, !dbg !7278
  call void @llvm.lifetime.end.p0i8(i64 8, i8* %36) #32, !dbg !7278
  br label %37, !dbg !7279

37:                                               ; preds = %24, %15
  %38 = getelementptr inbounds %"class.Halide::Runtime::Buffer", %"class.Halide::Runtime::Buffer"* %10, i32 0, i32 0, !dbg !7280
  %39 = getelementptr inbounds %struct.halide_buffer_t, %struct.halide_buffer_t* %38, i32 0, i32 2, !dbg !7281
  store i8* null, i8** %39, align 8, !dbg !7282, !tbaa !7119
  %40 = getelementptr inbounds %"class.Halide::Runtime::Buffer", %"class.Halide::Runtime::Buffer"* %10, i32 0, i32 2, !dbg !7283
  store %"struct.Halide::Runtime::AllocationHeader"* null, %"struct.Halide::Runtime::AllocationHeader"** %40, align 8, !dbg !7284, !tbaa !6828
  call void @_ZN6Halide7Runtime6BufferItLi2ELi2EE14set_host_dirtyEb(%"class.Halide::Runtime::Buffer"* noundef nonnull align 8 dereferenceable(104) %10, i1 noundef zeroext false), !dbg !7285
  %41 = bitcast i32* %5 to i8*, !dbg !7286
  call void @llvm.lifetime.end.p0i8(i64 4, i8* %41) #32, !dbg !7286
  br label %42, !dbg !7287

42:                                               ; preds = %37, %12, %2
  %43 = bitcast i32* %7 to i8*, !dbg !7288
  call void @llvm.lifetime.start.p0i8(i64 4, i8* %43) #32, !dbg !7288
  call void @llvm.dbg.declare(metadata i32* %7, metadata !7247, metadata !DIExpression()), !dbg !7289
  store i32 0, i32* %7, align 4, !dbg !7289, !tbaa !5744
  %44 = getelementptr inbounds %"class.Halide::Runtime::Buffer", %"class.Halide::Runtime::Buffer"* %10, i32 0, i32 3, !dbg !7290
  %45 = load %"struct.Halide::Runtime::DeviceRefCount"*, %"struct.Halide::Runtime::DeviceRefCount"** %44, align 8, !dbg !7290, !tbaa !6830
  %46 = icmp ne %"struct.Halide::Runtime::DeviceRefCount"* %45, null, !dbg !7290
  br i1 %46, label %47, label %53, !dbg !7292

47:                                               ; preds = %42
  %48 = getelementptr inbounds %"class.Halide::Runtime::Buffer", %"class.Halide::Runtime::Buffer"* %10, i32 0, i32 3, !dbg !7293
  %49 = load %"struct.Halide::Runtime::DeviceRefCount"*, %"struct.Halide::Runtime::DeviceRefCount"** %48, align 8, !dbg !7293, !tbaa !6830
  %50 = getelementptr inbounds %"struct.Halide::Runtime::DeviceRefCount", %"struct.Halide::Runtime::DeviceRefCount"* %49, i32 0, i32 0, !dbg !7295
  %51 = bitcast %"struct.std::__1::atomic"* %50 to %"struct.std::__1::__atomic_base"*, !dbg !7296
  %52 = call noundef i32 @_ZNSt3__113__atomic_baseIiLb1EEmmEv(%"struct.std::__1::__atomic_base"* noundef nonnull align 4 dereferenceable(4) %51) #32, !dbg !7297
  store i32 %52, i32* %7, align 4, !dbg !7298, !tbaa !5744
  br label %53, !dbg !7299

53:                                               ; preds = %47, %42
  %54 = load i32, i32* %7, align 4, !dbg !7300, !tbaa !5744
  %55 = icmp eq i32 %54, 0, !dbg !7301
  br i1 %55, label %56, label %195, !dbg !7302

56:                                               ; preds = %53
  %57 = getelementptr inbounds %"class.Halide::Runtime::Buffer", %"class.Halide::Runtime::Buffer"* %10, i32 0, i32 0, !dbg !7303
  %58 = getelementptr inbounds %struct.halide_buffer_t, %struct.halide_buffer_t* %57, i32 0, i32 0, !dbg !7304
  %59 = load i64, i64* %58, align 8, !dbg !7304, !tbaa !7305
  %60 = icmp ne i64 %59, 0, !dbg !7303
  br i1 %60, label %61, label %168, !dbg !7306

61:                                               ; preds = %56
  %62 = getelementptr inbounds %"class.Halide::Runtime::Buffer", %"class.Halide::Runtime::Buffer"* %10, i32 0, i32 2, !dbg !7307
  %63 = load %"struct.Halide::Runtime::AllocationHeader"*, %"struct.Halide::Runtime::AllocationHeader"** %62, align 8, !dbg !7307, !tbaa !6828
  %64 = icmp ne %"struct.Halide::Runtime::AllocationHeader"* %63, null, !dbg !7307
  br i1 %64, label %65, label %67, !dbg !7307

65:                                               ; preds = %61
  %66 = call noundef zeroext i1 @_ZNK6Halide7Runtime6BufferItLi2ELi2EE12device_dirtyEv(%"class.Halide::Runtime::Buffer"* noundef nonnull align 8 dereferenceable(104) %10), !dbg !7307
  br i1 %66, label %68, label %67, !dbg !7307

67:                                               ; preds = %65, %61
  br label %68

68:                                               ; preds = %67, %65
  %69 = phi i1 [ false, %65 ], [ true, %67 ], !dbg !7308
  %70 = xor i1 %69, true, !dbg !7307
  %71 = zext i1 %70 to i64, !dbg !7307
  %72 = call i64 @llvm.expect.i64(i64 %71, i64 0), !dbg !7307
  %73 = icmp ne i64 %72, 0, !dbg !7307
  br i1 %73, label %74, label %76, !dbg !7307

74:                                               ; preds = %68
  call void @__assert_rtn(i8* noundef getelementptr inbounds ([7 x i8], [7 x i8]* @__func__._ZN6Halide7Runtime6BufferItLi2ELi2EE6decrefEb, i64 0, i64 0), i8* noundef getelementptr inbounds ([15 x i8], [15 x i8]* @.str.5, i64 0, i64 0), i32 noundef 337, i8* noundef getelementptr inbounds ([314 x i8], [314 x i8]* @.str.10, i64 0, i64 0)) #33, !dbg !7307
  unreachable, !dbg !7307

75:                                               ; No predecessors!
  br label %77, !dbg !7307

76:                                               ; preds = %68
  br label %77, !dbg !7307

77:                                               ; preds = %76, %75
  %78 = bitcast i32* %8 to i8*, !dbg !7309
  call void @llvm.lifetime.start.p0i8(i64 4, i8* %78) #32, !dbg !7309
  call void @llvm.dbg.declare(metadata i32* %8, metadata !7248, metadata !DIExpression()), !dbg !7310
  store i32 0, i32* %8, align 4, !dbg !7310, !tbaa !5744
  %79 = getelementptr inbounds %"class.Halide::Runtime::Buffer", %"class.Halide::Runtime::Buffer"* %10, i32 0, i32 3, !dbg !7311
  %80 = load %"struct.Halide::Runtime::DeviceRefCount"*, %"struct.Halide::Runtime::DeviceRefCount"** %79, align 8, !dbg !7311, !tbaa !6830
  %81 = icmp ne %"struct.Halide::Runtime::DeviceRefCount"* %80, null, !dbg !7311
  br i1 %81, label %82, label %96, !dbg !7313

82:                                               ; preds = %77
  %83 = getelementptr inbounds %"class.Halide::Runtime::Buffer", %"class.Halide::Runtime::Buffer"* %10, i32 0, i32 3, !dbg !7314
  %84 = load %"struct.Halide::Runtime::DeviceRefCount"*, %"struct.Halide::Runtime::DeviceRefCount"** %83, align 8, !dbg !7314, !tbaa !6830
  %85 = getelementptr inbounds %"struct.Halide::Runtime::DeviceRefCount", %"struct.Halide::Runtime::DeviceRefCount"* %84, i32 0, i32 1, !dbg !7315
  %86 = load i32, i32* %85, align 4, !dbg !7315, !tbaa !7316
  %87 = icmp eq i32 %86, 1, !dbg !7319
  br i1 %87, label %88, label %96, !dbg !7320

88:                                               ; preds = %82
  %89 = getelementptr inbounds %"class.Halide::Runtime::Buffer", %"class.Halide::Runtime::Buffer"* %10, i32 0, i32 0, !dbg !7321
  %90 = getelementptr inbounds %struct.halide_buffer_t, %struct.halide_buffer_t* %89, i32 0, i32 1, !dbg !7323
  %91 = load %struct.halide_device_interface_t*, %struct.halide_device_interface_t** %90, align 8, !dbg !7323, !tbaa !6054
  %92 = getelementptr inbounds %struct.halide_device_interface_t, %struct.halide_device_interface_t* %91, i32 0, i32 13, !dbg !7324
  %93 = load i32 (i8*, %struct.halide_buffer_t*)*, i32 (i8*, %struct.halide_buffer_t*)** %92, align 8, !dbg !7324, !tbaa !7325
  %94 = getelementptr inbounds %"class.Halide::Runtime::Buffer", %"class.Halide::Runtime::Buffer"* %10, i32 0, i32 0, !dbg !7326
  %95 = call noundef i32 %93(i8* noundef null, %struct.halide_buffer_t* noundef %94), !dbg !7321
  store i32 %95, i32* %8, align 4, !dbg !7327, !tbaa !5744
  br label %153, !dbg !7328

96:                                               ; preds = %82, %77
  %97 = getelementptr inbounds %"class.Halide::Runtime::Buffer", %"class.Halide::Runtime::Buffer"* %10, i32 0, i32 3, !dbg !7329
  %98 = load %"struct.Halide::Runtime::DeviceRefCount"*, %"struct.Halide::Runtime::DeviceRefCount"** %97, align 8, !dbg !7329, !tbaa !6830
  %99 = icmp ne %"struct.Halide::Runtime::DeviceRefCount"* %98, null, !dbg !7329
  br i1 %99, label %100, label %114, !dbg !7331

100:                                              ; preds = %96
  %101 = getelementptr inbounds %"class.Halide::Runtime::Buffer", %"class.Halide::Runtime::Buffer"* %10, i32 0, i32 3, !dbg !7332
  %102 = load %"struct.Halide::Runtime::DeviceRefCount"*, %"struct.Halide::Runtime::DeviceRefCount"** %101, align 8, !dbg !7332, !tbaa !6830
  %103 = getelementptr inbounds %"struct.Halide::Runtime::DeviceRefCount", %"struct.Halide::Runtime::DeviceRefCount"* %102, i32 0, i32 1, !dbg !7333
  %104 = load i32, i32* %103, align 4, !dbg !7333, !tbaa !7316
  %105 = icmp eq i32 %104, 3, !dbg !7334
  br i1 %105, label %106, label %114, !dbg !7335

106:                                              ; preds = %100
  %107 = getelementptr inbounds %"class.Halide::Runtime::Buffer", %"class.Halide::Runtime::Buffer"* %10, i32 0, i32 0, !dbg !7336
  %108 = getelementptr inbounds %struct.halide_buffer_t, %struct.halide_buffer_t* %107, i32 0, i32 1, !dbg !7338
  %109 = load %struct.halide_device_interface_t*, %struct.halide_device_interface_t** %108, align 8, !dbg !7338, !tbaa !6054
  %110 = getelementptr inbounds %struct.halide_device_interface_t, %struct.halide_device_interface_t* %109, i32 0, i32 7, !dbg !7339
  %111 = load i32 (i8*, %struct.halide_buffer_t*)*, i32 (i8*, %struct.halide_buffer_t*)** %110, align 8, !dbg !7339, !tbaa !7340
  %112 = getelementptr inbounds %"class.Halide::Runtime::Buffer", %"class.Halide::Runtime::Buffer"* %10, i32 0, i32 0, !dbg !7341
  %113 = call noundef i32 %111(i8* noundef null, %struct.halide_buffer_t* noundef %112), !dbg !7336
  store i32 %113, i32* %8, align 4, !dbg !7342, !tbaa !5744
  br label %152, !dbg !7343

114:                                              ; preds = %100, %96
  %115 = getelementptr inbounds %"class.Halide::Runtime::Buffer", %"class.Halide::Runtime::Buffer"* %10, i32 0, i32 3, !dbg !7344
  %116 = load %"struct.Halide::Runtime::DeviceRefCount"*, %"struct.Halide::Runtime::DeviceRefCount"** %115, align 8, !dbg !7344, !tbaa !6830
  %117 = icmp ne %"struct.Halide::Runtime::DeviceRefCount"* %116, null, !dbg !7344
  br i1 %117, label %118, label %132, !dbg !7346

118:                                              ; preds = %114
  %119 = getelementptr inbounds %"class.Halide::Runtime::Buffer", %"class.Halide::Runtime::Buffer"* %10, i32 0, i32 3, !dbg !7347
  %120 = load %"struct.Halide::Runtime::DeviceRefCount"*, %"struct.Halide::Runtime::DeviceRefCount"** %119, align 8, !dbg !7347, !tbaa !6830
  %121 = getelementptr inbounds %"struct.Halide::Runtime::DeviceRefCount", %"struct.Halide::Runtime::DeviceRefCount"* %120, i32 0, i32 1, !dbg !7348
  %122 = load i32, i32* %121, align 4, !dbg !7348, !tbaa !7316
  %123 = icmp eq i32 %122, 4, !dbg !7349
  br i1 %123, label %124, label %132, !dbg !7350

124:                                              ; preds = %118
  %125 = getelementptr inbounds %"class.Halide::Runtime::Buffer", %"class.Halide::Runtime::Buffer"* %10, i32 0, i32 0, !dbg !7351
  %126 = getelementptr inbounds %struct.halide_buffer_t, %struct.halide_buffer_t* %125, i32 0, i32 1, !dbg !7353
  %127 = load %struct.halide_device_interface_t*, %struct.halide_device_interface_t** %126, align 8, !dbg !7353, !tbaa !6054
  %128 = getelementptr inbounds %struct.halide_device_interface_t, %struct.halide_device_interface_t* %127, i32 0, i32 11, !dbg !7354
  %129 = load i32 (i8*, %struct.halide_buffer_t*)*, i32 (i8*, %struct.halide_buffer_t*)** %128, align 8, !dbg !7354, !tbaa !7355
  %130 = getelementptr inbounds %"class.Halide::Runtime::Buffer", %"class.Halide::Runtime::Buffer"* %10, i32 0, i32 0, !dbg !7356
  %131 = call noundef i32 %129(i8* noundef null, %struct.halide_buffer_t* noundef %130), !dbg !7351
  store i32 %131, i32* %8, align 4, !dbg !7357, !tbaa !5744
  br label %151, !dbg !7358

132:                                              ; preds = %118, %114
  %133 = getelementptr inbounds %"class.Halide::Runtime::Buffer", %"class.Halide::Runtime::Buffer"* %10, i32 0, i32 3, !dbg !7359
  %134 = load %"struct.Halide::Runtime::DeviceRefCount"*, %"struct.Halide::Runtime::DeviceRefCount"** %133, align 8, !dbg !7359, !tbaa !6830
  %135 = icmp eq %"struct.Halide::Runtime::DeviceRefCount"* %134, null, !dbg !7361
  br i1 %135, label %142, label %136, !dbg !7362

136:                                              ; preds = %132
  %137 = getelementptr inbounds %"class.Halide::Runtime::Buffer", %"class.Halide::Runtime::Buffer"* %10, i32 0, i32 3, !dbg !7363
  %138 = load %"struct.Halide::Runtime::DeviceRefCount"*, %"struct.Halide::Runtime::DeviceRefCount"** %137, align 8, !dbg !7363, !tbaa !6830
  %139 = getelementptr inbounds %"struct.Halide::Runtime::DeviceRefCount", %"struct.Halide::Runtime::DeviceRefCount"* %138, i32 0, i32 1, !dbg !7364
  %140 = load i32, i32* %139, align 4, !dbg !7364, !tbaa !7316
  %141 = icmp eq i32 %140, 0, !dbg !7365
  br i1 %141, label %142, label %150, !dbg !7366

142:                                              ; preds = %136, %132
  %143 = getelementptr inbounds %"class.Halide::Runtime::Buffer", %"class.Halide::Runtime::Buffer"* %10, i32 0, i32 0, !dbg !7367
  %144 = getelementptr inbounds %struct.halide_buffer_t, %struct.halide_buffer_t* %143, i32 0, i32 1, !dbg !7369
  %145 = load %struct.halide_device_interface_t*, %struct.halide_device_interface_t** %144, align 8, !dbg !7369, !tbaa !6054
  %146 = getelementptr inbounds %struct.halide_device_interface_t, %struct.halide_device_interface_t* %145, i32 0, i32 1, !dbg !7370
  %147 = load i32 (i8*, %struct.halide_buffer_t*)*, i32 (i8*, %struct.halide_buffer_t*)** %146, align 8, !dbg !7370, !tbaa !7371
  %148 = getelementptr inbounds %"class.Halide::Runtime::Buffer", %"class.Halide::Runtime::Buffer"* %10, i32 0, i32 0, !dbg !7372
  %149 = call noundef i32 %147(i8* noundef null, %struct.halide_buffer_t* noundef %148), !dbg !7367
  store i32 %149, i32* %8, align 4, !dbg !7373, !tbaa !5744
  br label %150, !dbg !7374

150:                                              ; preds = %142, %136
  br label %151

151:                                              ; preds = %150, %124
  br label %152

152:                                              ; preds = %151, %106
  br label %153

153:                                              ; preds = %152, %88
  %154 = load i32, i32* %8, align 4, !dbg !7375, !tbaa !5744
  %155 = icmp eq i32 %154, 0, !dbg !7375
  br i1 %155, label %156, label %157, !dbg !7375

156:                                              ; preds = %153
  br label %157

157:                                              ; preds = %156, %153
  %158 = phi i1 [ false, %153 ], [ true, %156 ], !dbg !7308
  %159 = xor i1 %158, true, !dbg !7375
  %160 = zext i1 %159 to i64, !dbg !7375
  %161 = call i64 @llvm.expect.i64(i64 %160, i64 0), !dbg !7375
  %162 = icmp ne i64 %161, 0, !dbg !7375
  br i1 %162, label %163, label %165, !dbg !7375

163:                                              ; preds = %157
  call void @__assert_rtn(i8* noundef getelementptr inbounds ([7 x i8], [7 x i8]* @__func__._ZN6Halide7Runtime6BufferItLi2ELi2EE6decrefEb, i64 0, i64 0), i8* noundef getelementptr inbounds ([15 x i8], [15 x i8]* @.str.5, i64 0, i64 0), i32 noundef 349, i8* noundef getelementptr inbounds ([111 x i8], [111 x i8]* @.str.12, i64 0, i64 0)) #33, !dbg !7375
  unreachable, !dbg !7375

164:                                              ; No predecessors!
  br label %166, !dbg !7375

165:                                              ; preds = %157
  br label %166, !dbg !7375

166:                                              ; preds = %165, %164
  %167 = bitcast i32* %8 to i8*, !dbg !7376
  call void @llvm.lifetime.end.p0i8(i64 4, i8* %167) #32, !dbg !7376
  br label %168, !dbg !7377

168:                                              ; preds = %166, %56
  %169 = getelementptr inbounds %"class.Halide::Runtime::Buffer", %"class.Halide::Runtime::Buffer"* %10, i32 0, i32 3, !dbg !7378
  %170 = load %"struct.Halide::Runtime::DeviceRefCount"*, %"struct.Halide::Runtime::DeviceRefCount"** %169, align 8, !dbg !7378, !tbaa !6830
  %171 = icmp ne %"struct.Halide::Runtime::DeviceRefCount"* %170, null, !dbg !7378
  br i1 %171, label %172, label %194, !dbg !7380

172:                                              ; preds = %168
  %173 = getelementptr inbounds %"class.Halide::Runtime::Buffer", %"class.Halide::Runtime::Buffer"* %10, i32 0, i32 3, !dbg !7381
  %174 = load %"struct.Halide::Runtime::DeviceRefCount"*, %"struct.Halide::Runtime::DeviceRefCount"** %173, align 8, !dbg !7381, !tbaa !6830
  %175 = getelementptr inbounds %"struct.Halide::Runtime::DeviceRefCount", %"struct.Halide::Runtime::DeviceRefCount"* %174, i32 0, i32 1, !dbg !7384
  %176 = load i32, i32* %175, align 4, !dbg !7384, !tbaa !7316
  %177 = icmp eq i32 %176, 4, !dbg !7385
  br i1 %177, label %178, label %186, !dbg !7386

178:                                              ; preds = %172
  %179 = getelementptr inbounds %"class.Halide::Runtime::Buffer", %"class.Halide::Runtime::Buffer"* %10, i32 0, i32 3, !dbg !7387
  %180 = load %"struct.Halide::Runtime::DeviceRefCount"*, %"struct.Halide::Runtime::DeviceRefCount"** %179, align 8, !dbg !7387, !tbaa !6830
  %181 = bitcast %"struct.Halide::Runtime::DeviceRefCount"* %180 to %"struct.Halide::Runtime::Buffer<unsigned short, 2, 2>::DevRefCountCropped"*, !dbg !7389
  %182 = icmp eq %"struct.Halide::Runtime::Buffer<unsigned short, 2, 2>::DevRefCountCropped"* %181, null, !dbg !7390
  br i1 %182, label %185, label %183, !dbg !7390

183:                                              ; preds = %178
  call void @_ZN6Halide7Runtime6BufferItLi2ELi2EE18DevRefCountCroppedD1Ev(%"struct.Halide::Runtime::Buffer<unsigned short, 2, 2>::DevRefCountCropped"* noundef nonnull align 8 dereferenceable(112) %181) #32, !dbg !7390
  %184 = bitcast %"struct.Halide::Runtime::Buffer<unsigned short, 2, 2>::DevRefCountCropped"* %181 to i8*, !dbg !7390
  call void @_ZdlPv(i8* noundef %184) #35, !dbg !7390
  br label %185, !dbg !7390

185:                                              ; preds = %183, %178
  br label %193, !dbg !7391

186:                                              ; preds = %172
  %187 = getelementptr inbounds %"class.Halide::Runtime::Buffer", %"class.Halide::Runtime::Buffer"* %10, i32 0, i32 3, !dbg !7392
  %188 = load %"struct.Halide::Runtime::DeviceRefCount"*, %"struct.Halide::Runtime::DeviceRefCount"** %187, align 8, !dbg !7392, !tbaa !6830
  %189 = icmp eq %"struct.Halide::Runtime::DeviceRefCount"* %188, null, !dbg !7394
  br i1 %189, label %192, label %190, !dbg !7394

190:                                              ; preds = %186
  %191 = bitcast %"struct.Halide::Runtime::DeviceRefCount"* %188 to i8*, !dbg !7394
  call void @_ZdlPv(i8* noundef %191) #35, !dbg !7394
  br label %192, !dbg !7394

192:                                              ; preds = %190, %186
  br label %193

193:                                              ; preds = %192, %185
  br label %194, !dbg !7395

194:                                              ; preds = %193, %168
  br label %195, !dbg !7396

195:                                              ; preds = %194, %53
  %196 = getelementptr inbounds %"class.Halide::Runtime::Buffer", %"class.Halide::Runtime::Buffer"* %10, i32 0, i32 3, !dbg !7397
  store %"struct.Halide::Runtime::DeviceRefCount"* null, %"struct.Halide::Runtime::DeviceRefCount"** %196, align 8, !dbg !7398, !tbaa !6830
  %197 = getelementptr inbounds %"class.Halide::Runtime::Buffer", %"class.Halide::Runtime::Buffer"* %10, i32 0, i32 0, !dbg !7399
  %198 = getelementptr inbounds %struct.halide_buffer_t, %struct.halide_buffer_t* %197, i32 0, i32 0, !dbg !7400
  store i64 0, i64* %198, align 8, !dbg !7401, !tbaa !7305
  %199 = getelementptr inbounds %"class.Halide::Runtime::Buffer", %"class.Halide::Runtime::Buffer"* %10, i32 0, i32 0, !dbg !7402
  %200 = getelementptr inbounds %struct.halide_buffer_t, %struct.halide_buffer_t* %199, i32 0, i32 1, !dbg !7403
  store %struct.halide_device_interface_t* null, %struct.halide_device_interface_t** %200, align 8, !dbg !7404, !tbaa !6054
  %201 = bitcast i32* %7 to i8*, !dbg !7405
  call void @llvm.lifetime.end.p0i8(i64 4, i8* %201) #32, !dbg !7405
  ret void, !dbg !7405
}

; Function Attrs: mustprogress nounwind ssp uwtable
define linkonce_odr hidden noundef zeroext i1 @_ZNK6Halide7Runtime6BufferItLi2ELi2EE16owns_host_memoryEv(%"class.Halide::Runtime::Buffer"* noundef nonnull align 8 dereferenceable(104) %0) #7 align 2 !dbg !7406 {
  %2 = alloca %"class.Halide::Runtime::Buffer"*, align 8
  store %"class.Halide::Runtime::Buffer"* %0, %"class.Halide::Runtime::Buffer"** %2, align 8, !tbaa !5701
  call void @llvm.dbg.declare(metadata %"class.Halide::Runtime::Buffer"** %2, metadata !7408, metadata !DIExpression()), !dbg !7409
  %3 = load %"class.Halide::Runtime::Buffer"*, %"class.Halide::Runtime::Buffer"** %2, align 8
  %4 = getelementptr inbounds %"class.Halide::Runtime::Buffer", %"class.Halide::Runtime::Buffer"* %3, i32 0, i32 2, !dbg !7410
  %5 = load %"struct.Halide::Runtime::AllocationHeader"*, %"struct.Halide::Runtime::AllocationHeader"** %4, align 8, !dbg !7410, !tbaa !6828
  %6 = icmp ne %"struct.Halide::Runtime::AllocationHeader"* %5, null, !dbg !7411
  ret i1 %6, !dbg !7412
}

; Function Attrs: mustprogress nounwind ssp uwtable
define linkonce_odr hidden noundef i32 @_ZNSt3__113__atomic_baseIiLb1EEmmEv(%"struct.std::__1::__atomic_base"* noundef nonnull align 4 dereferenceable(4) %0) #7 align 2 !dbg !7413 {
  %2 = alloca %"struct.std::__1::__atomic_base"*, align 8
  store %"struct.std::__1::__atomic_base"* %0, %"struct.std::__1::__atomic_base"** %2, align 8, !tbaa !5701
  call void @llvm.dbg.declare(metadata %"struct.std::__1::__atomic_base"** %2, metadata !7415, metadata !DIExpression()), !dbg !7417
  %3 = load %"struct.std::__1::__atomic_base"*, %"struct.std::__1::__atomic_base"** %2, align 8
  %4 = call noundef i32 @_ZNSt3__113__atomic_baseIiLb1EE9fetch_subEiNS_12memory_orderE(%"struct.std::__1::__atomic_base"* noundef nonnull align 4 dereferenceable(4) %3, i32 noundef 1, i32 noundef 5) #32, !dbg !7418
  %5 = sub nsw i32 %4, 1, !dbg !7419
  ret i32 %5, !dbg !7420
}

; Function Attrs: alwaysinline mustprogress ssp uwtable
define linkonce_odr hidden void @_ZN6Halide7Runtime6BufferItLi2ELi2EE14set_host_dirtyEb(%"class.Halide::Runtime::Buffer"* noundef nonnull align 8 dereferenceable(104) %0, i1 noundef zeroext %1) #9 align 2 !dbg !7421 {
  %3 = alloca %"class.Halide::Runtime::Buffer"*, align 8
  %4 = alloca i8, align 1
  store %"class.Halide::Runtime::Buffer"* %0, %"class.Halide::Runtime::Buffer"** %3, align 8, !tbaa !5701
  call void @llvm.dbg.declare(metadata %"class.Halide::Runtime::Buffer"** %3, metadata !7423, metadata !DIExpression()), !dbg !7425
  %5 = zext i1 %1 to i8
  store i8 %5, i8* %4, align 1, !tbaa !6176
  call void @llvm.dbg.declare(metadata i8* %4, metadata !7424, metadata !DIExpression()), !dbg !7426
  %6 = load %"class.Halide::Runtime::Buffer"*, %"class.Halide::Runtime::Buffer"** %3, align 8
  %7 = load i8, i8* %4, align 1, !dbg !7427, !tbaa !6176, !range !6181
  %8 = trunc i8 %7 to i1, !dbg !7427
  br i1 %8, label %9, label %11, !dbg !7427

9:                                                ; preds = %2
  %10 = call noundef zeroext i1 @_ZNK6Halide7Runtime6BufferItLi2ELi2EE12device_dirtyEv(%"class.Halide::Runtime::Buffer"* noundef nonnull align 8 dereferenceable(104) %6), !dbg !7427
  br i1 %10, label %12, label %11, !dbg !7427

11:                                               ; preds = %9, %2
  br label %12

12:                                               ; preds = %11, %9
  %13 = phi i1 [ false, %9 ], [ true, %11 ], !dbg !7425
  %14 = xor i1 %13, true, !dbg !7427
  %15 = zext i1 %14 to i64, !dbg !7427
  %16 = call i64 @llvm.expect.i64(i64 %15, i64 0), !dbg !7427
  %17 = icmp ne i64 %16, 0, !dbg !7427
  br i1 %17, label %18, label %20, !dbg !7427

18:                                               ; preds = %12
  call void @__assert_rtn(i8* noundef getelementptr inbounds ([15 x i8], [15 x i8]* @__func__._ZN6Halide7Runtime6BufferItLi2ELi2EE14set_host_dirtyEb, i64 0, i64 0), i8* noundef getelementptr inbounds ([15 x i8], [15 x i8]* @.str.5, i64 0, i64 0), i32 noundef 1764, i8* noundef getelementptr inbounds ([140 x i8], [140 x i8]* @.str.14, i64 0, i64 0)) #33, !dbg !7427
  unreachable, !dbg !7427

19:                                               ; No predecessors!
  br label %21, !dbg !7427

20:                                               ; preds = %12
  br label %21, !dbg !7427

21:                                               ; preds = %20, %19
  %22 = getelementptr inbounds %"class.Halide::Runtime::Buffer", %"class.Halide::Runtime::Buffer"* %6, i32 0, i32 0, !dbg !7428
  %23 = load i8, i8* %4, align 1, !dbg !7429, !tbaa !6176, !range !6181
  %24 = trunc i8 %23 to i1, !dbg !7429
  call void @_ZN15halide_buffer_t14set_host_dirtyEb(%struct.halide_buffer_t* noundef nonnull align 8 dereferenceable(56) %22, i1 noundef zeroext %24), !dbg !7430
  ret void, !dbg !7431
}

; Function Attrs: alwaysinline mustprogress ssp uwtable
define linkonce_odr hidden noundef zeroext i1 @_ZNK6Halide7Runtime6BufferItLi2ELi2EE12device_dirtyEv(%"class.Halide::Runtime::Buffer"* noundef nonnull align 8 dereferenceable(104) %0) #9 align 2 !dbg !7432 {
  %2 = alloca %"class.Halide::Runtime::Buffer"*, align 8
  store %"class.Halide::Runtime::Buffer"* %0, %"class.Halide::Runtime::Buffer"** %2, align 8, !tbaa !5701
  call void @llvm.dbg.declare(metadata %"class.Halide::Runtime::Buffer"** %2, metadata !7434, metadata !DIExpression()), !dbg !7435
  %3 = load %"class.Halide::Runtime::Buffer"*, %"class.Halide::Runtime::Buffer"** %2, align 8
  %4 = getelementptr inbounds %"class.Halide::Runtime::Buffer", %"class.Halide::Runtime::Buffer"* %3, i32 0, i32 0, !dbg !7436
  %5 = call noundef zeroext i1 @_ZNK15halide_buffer_t12device_dirtyEv(%struct.halide_buffer_t* noundef nonnull align 8 dereferenceable(56) %4), !dbg !7437
  ret i1 %5, !dbg !7438
}

; Function Attrs: inlinehint nounwind ssp uwtable
define linkonce_odr hidden void @_ZN6Halide7Runtime6BufferItLi2ELi2EE18DevRefCountCroppedD1Ev(%"struct.Halide::Runtime::Buffer<unsigned short, 2, 2>::DevRefCountCropped"* noundef nonnull align 8 dereferenceable(112) %0) unnamed_addr #16 align 2 !dbg !7439 {
  %2 = alloca %"struct.Halide::Runtime::Buffer<unsigned short, 2, 2>::DevRefCountCropped"*, align 8
  store %"struct.Halide::Runtime::Buffer<unsigned short, 2, 2>::DevRefCountCropped"* %0, %"struct.Halide::Runtime::Buffer<unsigned short, 2, 2>::DevRefCountCropped"** %2, align 8, !tbaa !5701
  call void @llvm.dbg.declare(metadata %"struct.Halide::Runtime::Buffer<unsigned short, 2, 2>::DevRefCountCropped"** %2, metadata !7444, metadata !DIExpression()), !dbg !7445
  %3 = load %"struct.Halide::Runtime::Buffer<unsigned short, 2, 2>::DevRefCountCropped"*, %"struct.Halide::Runtime::Buffer<unsigned short, 2, 2>::DevRefCountCropped"** %2, align 8
  call void @_ZN6Halide7Runtime6BufferItLi2ELi2EE18DevRefCountCroppedD2Ev(%"struct.Halide::Runtime::Buffer<unsigned short, 2, 2>::DevRefCountCropped"* noundef nonnull align 8 dereferenceable(112) %3) #32, !dbg !7446
  ret void, !dbg !7446
}

; Function Attrs: mustprogress nounwind ssp uwtable
define linkonce_odr hidden noundef i32 @_ZNSt3__113__atomic_baseIiLb1EE9fetch_subEiNS_12memory_orderE(%"struct.std::__1::__atomic_base"* noundef nonnull align 4 dereferenceable(4) %0, i32 noundef %1, i32 noundef %2) #7 align 2 !dbg !7447 {
  %4 = alloca %"struct.std::__1::__atomic_base"*, align 8
  %5 = alloca i32, align 4
  %6 = alloca i32, align 4
  store %"struct.std::__1::__atomic_base"* %0, %"struct.std::__1::__atomic_base"** %4, align 8, !tbaa !5701
  call void @llvm.dbg.declare(metadata %"struct.std::__1::__atomic_base"** %4, metadata !7449, metadata !DIExpression()), !dbg !7452
  store i32 %1, i32* %5, align 4, !tbaa !5744
  call void @llvm.dbg.declare(metadata i32* %5, metadata !7450, metadata !DIExpression()), !dbg !7453
  store i32 %2, i32* %6, align 4, !tbaa !7454
  call void @llvm.dbg.declare(metadata i32* %6, metadata !7451, metadata !DIExpression()), !dbg !7456
  %7 = load %"struct.std::__1::__atomic_base"*, %"struct.std::__1::__atomic_base"** %4, align 8
  %8 = bitcast %"struct.std::__1::__atomic_base"* %7 to %"struct.std::__1::__atomic_base.0"*, !dbg !7457
  %9 = getelementptr inbounds %"struct.std::__1::__atomic_base.0", %"struct.std::__1::__atomic_base.0"* %8, i32 0, i32 0, !dbg !7457
