; ModuleID = 'bin/host/halide_dotProduct.halide_generated.cpp'
source_filename = "bin/host/halide_dotProduct.halide_generated.cpp"
target datalayout = "e-m:o-p270:32:32-p271:32:32-p272:64:64-i64:64-f80:128-n8:16:32:64-S128"
target triple = "x86_64-apple-macosx14.0.0"

%"class.std::__1::basic_ostream" = type { i32 (...)**, %"class.std::__1::basic_ios.base" }
%"class.std::__1::basic_ios.base" = type <{ %"class.std::__1::ios_base", %"class.std::__1::basic_ostream"*, i32 }>
%"class.std::__1::ios_base" = type { i32 (...)**, i32, i64, i64, i32, i32, i8*, i8*, void (i32, %"class.std::__1::ios_base"*, i32)**, i32*, i64, i64, i64*, i64, i64, i8**, i64, i64 }
%struct.halide_filter_argument_t = type { i8*, i32, i32, %struct.halide_type_t, %struct.halide_scalar_value_t*, %struct.halide_scalar_value_t*, %struct.halide_scalar_value_t*, %struct.halide_scalar_value_t*, i64** }
%struct.halide_type_t = type { i8, i8, i16 }
%struct.halide_scalar_value_t = type { %union.anon }
%union.anon = type { i64 }
%struct.halide_filter_metadata_t = type { i32, i32, %struct.halide_filter_argument_t*, i8*, i8* }
%"class.std::__1::locale::id" = type <{ %"struct.std::__1::once_flag", i32, [4 x i8] }>
%"struct.std::__1::once_flag" = type { i64 }
%struct.halide_buffer_t = type { i64, %struct.halide_device_interface_t*, i8*, i64, %struct.halide_type_t, i32, %struct.halide_dimension_t*, i8* }
%struct.halide_device_interface_t = type { i32 (i8*, %struct.halide_buffer_t*, %struct.halide_device_interface_t*)*, i32 (i8*, %struct.halide_buffer_t*)*, i32 (i8*, %struct.halide_buffer_t*)*, void (i8*, %struct.halide_device_interface_t*)*, i32 (i8*, %struct.halide_buffer_t*)*, i32 (i8*, %struct.halide_buffer_t*, %struct.halide_device_interface_t*)*, i32 (i8*, %struct.halide_buffer_t*, %struct.halide_device_interface_t*)*, i32 (i8*, %struct.halide_buffer_t*)*, i32 (i8*, %struct.halide_buffer_t*, %struct.halide_device_interface_t*, %struct.halide_buffer_t*)*, i32 (i8*, %struct.halide_buffer_t*, %struct.halide_buffer_t*)*, i32 (i8*, %struct.halide_buffer_t*, i32, i32, %struct.halide_buffer_t*)*, i32 (i8*, %struct.halide_buffer_t*)*, i32 (i8*, %struct.halide_buffer_t*, i64, %struct.halide_device_interface_t*)*, i32 (i8*, %struct.halide_buffer_t*)*, i32 (i8*, i32*, i32*)*, %struct.halide_device_interface_impl_t* }
%struct.halide_device_interface_impl_t = type opaque
%struct.halide_dimension_t = type { i32, i32, i32, i32 }
%"class.std::__1::basic_ostream<char>::sentry" = type { i8, %"class.std::__1::basic_ostream"* }
%"class.std::__1::ostreambuf_iterator" = type { %"class.std::__1::basic_streambuf"* }
%"class.std::__1::basic_streambuf" = type { i32 (...)**, %"class.std::__1::locale", i8*, i8*, i8*, i8*, i8*, i8* }
%"class.std::__1::locale" = type { %"class.std::__1::locale::__imp"* }
%"class.std::__1::locale::__imp" = type opaque
%"class.std::__1::basic_ios" = type <{ %"class.std::__1::ios_base", %"class.std::__1::basic_ostream"*, i32, [4 x i8] }>
%"class.std::__1::basic_string" = type { %"class.std::__1::__compressed_pair" }
%"class.std::__1::__compressed_pair" = type { %"struct.std::__1::__compressed_pair_elem" }
%"struct.std::__1::__compressed_pair_elem" = type { %"struct.std::__1::basic_string<char>::__rep" }
%"struct.std::__1::basic_string<char>::__rep" = type { %union.anon.0 }
%union.anon.0 = type { %"struct.std::__1::basic_string<char>::__long" }
%"struct.std::__1::basic_string<char>::__long" = type { i64, i64, i8* }
%"struct.std::__1::__default_init_tag" = type { i8 }
%"class.std::__1::allocator" = type { i8 }
%"struct.std::__1::__compressed_pair_elem.2" = type { i8 }
%"struct.std::__1::__non_trivial_if" = type { i8 }
%"struct.std::__1::basic_string<char>::__short" = type { %union.anon.1, [23 x i8] }
%union.anon.1 = type { i8 }
%"class.std::length_error" = type { %"class.std::logic_error" }
%"class.std::logic_error" = type { %"class.std::exception", %"class.std::__1::__libcpp_refstring" }
%"class.std::exception" = type { i32 (...)** }
%"class.std::__1::__libcpp_refstring" = type { i8* }
%"class.std::bad_array_new_length" = type { %"class.std::bad_alloc" }
%"class.std::bad_alloc" = type { %"class.std::exception" }
%"struct.std::__1::iterator" = type { i8 }
%"class.std::__1::ctype" = type <{ %"class.std::__1::locale::facet", i32*, i8, [7 x i8] }>
%"class.std::__1::locale::facet" = type { %"class.std::__1::__shared_count" }
%"class.std::__1::__shared_count" = type { i32 (...)**, i64 }

@custom_do_par_for = hidden global i32 (i8*, i32 (i8*, i32, i8*)*, i32, i32, i8*)* @halide_default_do_par_for, align 8, !dbg !0
@buf_is_used = hidden global [10 x i32] zeroinitializer, align 16, !dbg !1912
@mem_buf = hidden global [10 x i8*] zeroinitializer, align 16, !dbg !1917
@_ZNSt3__14coutE = external global %"class.std::__1::basic_ostream", align 8
@.str = private unnamed_addr constant [47 x i8] c"Out of memory (halide_malloc returned nullptr)\00", align 1
@_ZNSt3__14cerrE = external global %"class.std::__1::basic_ostream", align 8
@.str.1 = private unnamed_addr constant [12 x i8] c"The buffer \00", align 1
@.str.2 = private unnamed_addr constant [53 x i8] c" is dirty on device, but this pipeline was compiled \00", align 1
@.str.3 = private unnamed_addr constant [43 x i8] c"with no support for device to host copies.\00", align 1
@.str.4 = private unnamed_addr constant [21 x i8] c"The host pointer of \00", align 1
@.str.5 = private unnamed_addr constant [55 x i8] c" is null, but the pipeline will access it on the host.\00", align 1
@.str.6 = private unnamed_addr constant [22 x i8] c"Constraint violated: \00", align 1
@.str.7 = private unnamed_addr constant [3 x i8] c" (\00", align 1
@.str.8 = private unnamed_addr constant [6 x i8] c") == \00", align 1
@.str.9 = private unnamed_addr constant [2 x i8] c")\00", align 1
@.str.10 = private unnamed_addr constant [17 x i8] c"Buffer argument \00", align 1
@.str.11 = private unnamed_addr constant [12 x i8] c" is nullptr\00", align 1
@.str.12 = private unnamed_addr constant [11 x i8] c" has type \00", align 1
@.str.13 = private unnamed_addr constant [29 x i8] c"Total allocation for buffer \00", align 1
@.str.14 = private unnamed_addr constant [5 x i8] c" is \00", align 1
@.str.15 = private unnamed_addr constant [37 x i8] c", which exceeds the maximum size of \00", align 1
@.str.16 = private unnamed_addr constant [24 x i8] c"The extents for buffer \00", align 1
@.str.17 = private unnamed_addr constant [12 x i8] c" dimension \00", align 1
@.str.18 = private unnamed_addr constant [15 x i8] c" is negative (\00", align 1
@.str.19 = private unnamed_addr constant [31 x i8] c"Product of extents for buffer \00", align 1
@.str.20 = private unnamed_addr constant [31 x i8] c" requires a buffer of exactly \00", align 1
@.str.21 = private unnamed_addr constant [43 x i8] c" dimensions, but the buffer passed in has \00", align 1
@.str.22 = private unnamed_addr constant [12 x i8] c" dimensions\00", align 1
@.str.23 = private unnamed_addr constant [17 x i8] c" is accessed at \00", align 1
@.str.24 = private unnamed_addr constant [28 x i8] c", which is before the min (\00", align 1
@.str.25 = private unnamed_addr constant [16 x i8] c") in dimension \00", align 1
@.str.26 = private unnamed_addr constant [28 x i8] c", which is beyond the max (\00", align 1
@custom_do_task = hidden global i32 (i8*, i32 (i8*, i32, i8*)*, i32, i8*)* @halide_default_do_task, align 8, !dbg !1924
@.str.27 = private unnamed_addr constant [18 x i8] c"Bounds given for \00", align 1
@.str.28 = private unnamed_addr constant [5 x i8] c" in \00", align 1
@.str.29 = private unnamed_addr constant [8 x i8] c" (from \00", align 1
@.str.30 = private unnamed_addr constant [5 x i8] c" to \00", align 1
@.str.31 = private unnamed_addr constant [38 x i8] c") do not cover required region (from \00", align 1
@.str.32 = private unnamed_addr constant [8 x i8] c"vectorB\00", align 1
@.str.33 = private unnamed_addr constant [8 x i8] c"vectorA\00", align 1
@.str.34 = private unnamed_addr constant [7 x i8] c"result\00", align 1
@.str.35 = private unnamed_addr constant [21 x i8] c"Output buffer result\00", align 1
@.str.36 = private unnamed_addr constant [21 x i8] c"Input buffer vectorA\00", align 1
@.str.37 = private unnamed_addr constant [21 x i8] c"Input buffer vectorB\00", align 1
@.str.38 = private unnamed_addr constant [16 x i8] c"result.stride.0\00", align 1
@.str.39 = private unnamed_addr constant [2 x i8] c"1\00", align 1
@.str.40 = private unnamed_addr constant [17 x i8] c"vectorA.stride.0\00", align 1
@.str.41 = private unnamed_addr constant [17 x i8] c"vectorB.stride.0\00", align 1
@.str.42 = private unnamed_addr constant [3 x i8] c"v0\00", align 1
@_ZZ26halide_dotProduct_metadataE7const_0 = internal constant i64 0, align 8, !dbg !1934
@_ZZ26halide_dotProduct_metadataE7const_1 = internal constant i64 1, align 8, !dbg !2012
@_ZZ26halide_dotProduct_metadataE24buffer_estimates__result = internal constant [2 x i64*] [i64* @_ZZ26halide_dotProduct_metadataE7const_0, i64* @_ZZ26halide_dotProduct_metadataE7const_1], align 16, !dbg !2014
@_ZZ26halide_dotProduct_metadataE4args = internal global [3 x %struct.halide_filter_argument_t] zeroinitializer, align 16, !dbg !2019
@_ZGVZ26halide_dotProduct_metadataE4args = internal global i64 0, align 8
@_ZZ26halide_dotProduct_metadataE2md = internal constant %struct.halide_filter_metadata_t { i32 1, i32 3, %struct.halide_filter_argument_t* getelementptr inbounds ([3 x %struct.halide_filter_argument_t], [3 x %struct.halide_filter_argument_t]* @_ZZ26halide_dotProduct_metadataE4args, i32 0, i32 0), i8* getelementptr inbounds ([35 x i8], [35 x i8]* @.str.43, i32 0, i32 0), i8* getelementptr inbounds ([18 x i8], [18 x i8]* @.str.44, i32 0, i32 0) }, align 8, !dbg !2022
@.str.43 = private unnamed_addr constant [35 x i8] c"x86-64-osx-avx-avx2-f16c-fma-sse41\00", align 1
@.str.44 = private unnamed_addr constant [18 x i8] c"halide_dotProduct\00", align 1
@.str.45 = private unnamed_addr constant [13 x i8] c"basic_string\00", align 1
@_ZTISt12length_error = external constant i8*
@_ZTVSt12length_error = available_externally unnamed_addr constant { [5 x i8*] } { [5 x i8*] [i8* null, i8* bitcast (i8** @_ZTISt12length_error to i8*), i8* bitcast (void (%"class.std::length_error"*)* @_ZNSt12length_errorD1Ev to i8*), i8* bitcast (void (%"class.std::length_error"*)* @_ZNSt12length_errorD0Ev to i8*), i8* bitcast (i8* (%"class.std::logic_error"*)* @_ZNKSt11logic_error4whatEv to i8*)] }, align 8
@_ZTISt20bad_array_new_length = external constant i8*
@_ZNSt3__15ctypeIcE2idE = external global %"class.std::__1::locale::id", align 8

; Function Attrs: mustprogress ssp uwtable
define hidden i32 @halide_default_do_par_for(i8* noundef %0, i32 (i8*, i32, i8*)* noundef %1, i32 noundef %2, i32 noundef %3, i8* noundef %4) #0 !dbg !3254 {
  %6 = alloca i32, align 4
  %7 = alloca i8*, align 8
  %8 = alloca i32 (i8*, i32, i8*)*, align 8
  %9 = alloca i32, align 4
  %10 = alloca i32, align 4
  %11 = alloca i8*, align 8
  %12 = alloca i32, align 4
  %13 = alloca i32, align 4
  %14 = alloca i32, align 4
  store i8* %0, i8** %7, align 8, !tbaa !3266
  call void @llvm.dbg.declare(metadata i8** %7, metadata !3256, metadata !DIExpression()), !dbg !3270
  store i32 (i8*, i32, i8*)* %1, i32 (i8*, i32, i8*)** %8, align 8, !tbaa !3266
  call void @llvm.dbg.declare(metadata i32 (i8*, i32, i8*)** %8, metadata !3257, metadata !DIExpression()), !dbg !3271
  store i32 %2, i32* %9, align 4, !tbaa !3272
  call void @llvm.dbg.declare(metadata i32* %9, metadata !3258, metadata !DIExpression()), !dbg !3274
  store i32 %3, i32* %10, align 4, !tbaa !3272
  call void @llvm.dbg.declare(metadata i32* %10, metadata !3259, metadata !DIExpression()), !dbg !3275
  store i8* %4, i8** %11, align 8, !tbaa !3266
  call void @llvm.dbg.declare(metadata i8** %11, metadata !3260, metadata !DIExpression()), !dbg !3276
  %15 = bitcast i32* %12 to i8*, !dbg !3277
  call void @llvm.lifetime.start.p0i8(i64 4, i8* %15) #9, !dbg !3277
  call void @llvm.dbg.declare(metadata i32* %12, metadata !3261, metadata !DIExpression()), !dbg !3278
  %16 = load i32, i32* %9, align 4, !dbg !3279, !tbaa !3272
  store i32 %16, i32* %12, align 4, !dbg !3278, !tbaa !3272
  br label %17, !dbg !3277

17:                                               ; preds = %40, %5
  %18 = load i32, i32* %12, align 4, !dbg !3280, !tbaa !3272
  %19 = load i32, i32* %9, align 4, !dbg !3281, !tbaa !3272
  %20 = load i32, i32* %10, align 4, !dbg !3282, !tbaa !3272
  %21 = add nsw i32 %19, %20, !dbg !3283
  %22 = icmp slt i32 %18, %21, !dbg !3284
  br i1 %22, label %24, label %23, !dbg !3285

23:                                               ; preds = %17
  store i32 2, i32* %13, align 4
  br label %43, !dbg !3285

24:                                               ; preds = %17
  %25 = bitcast i32* %14 to i8*, !dbg !3286
  call void @llvm.lifetime.start.p0i8(i64 4, i8* %25) #9, !dbg !3286
  call void @llvm.dbg.declare(metadata i32* %14, metadata !3263, metadata !DIExpression()), !dbg !3287
  %26 = load i8*, i8** %7, align 8, !dbg !3288, !tbaa !3266
  %27 = load i32 (i8*, i32, i8*)*, i32 (i8*, i32, i8*)** %8, align 8, !dbg !3289, !tbaa !3266
  %28 = load i32, i32* %12, align 4, !dbg !3290, !tbaa !3272
  %29 = load i8*, i8** %11, align 8, !dbg !3291, !tbaa !3266
  %30 = call i32 @halide_do_task(i8* noundef %26, i32 (i8*, i32, i8*)* noundef %27, i32 noundef %28, i8* noundef %29), !dbg !3292
  store i32 %30, i32* %14, align 4, !dbg !3287, !tbaa !3272
  %31 = load i32, i32* %14, align 4, !dbg !3293, !tbaa !3272
  %32 = icmp ne i32 %31, 0, !dbg !3293
  br i1 %32, label %33, label %35, !dbg !3295

33:                                               ; preds = %24
  %34 = load i32, i32* %14, align 4, !dbg !3296, !tbaa !3272
  store i32 %34, i32* %6, align 4, !dbg !3298
  store i32 1, i32* %13, align 4
  br label %36, !dbg !3298

35:                                               ; preds = %24
  store i32 0, i32* %13, align 4, !dbg !3299
  br label %36, !dbg !3299

36:                                               ; preds = %35, %33
  %37 = bitcast i32* %14 to i8*, !dbg !3299
  call void @llvm.lifetime.end.p0i8(i64 4, i8* %37) #9, !dbg !3299
  %38 = load i32, i32* %13, align 4
  switch i32 %38, label %43 [
    i32 0, label %39
  ]

39:                                               ; preds = %36
  br label %40, !dbg !3300

40:                                               ; preds = %39
  %41 = load i32, i32* %12, align 4, !dbg !3301, !tbaa !3272
  %42 = add nsw i32 %41, 1, !dbg !3301
  store i32 %42, i32* %12, align 4, !dbg !3301, !tbaa !3272
  br label %17, !dbg !3302, !llvm.loop !3303

43:                                               ; preds = %36, %23
  %44 = bitcast i32* %12 to i8*, !dbg !3302
  call void @llvm.lifetime.end.p0i8(i64 4, i8* %44) #9, !dbg !3302
  %45 = load i32, i32* %13, align 4
  switch i32 %45, label %49 [
    i32 2, label %46
    i32 1, label %47
  ]

46:                                               ; preds = %43
  store i32 0, i32* %6, align 4, !dbg !3306
  br label %47, !dbg !3306

47:                                               ; preds = %46, %43
  %48 = load i32, i32* %6, align 4, !dbg !3307
  ret i32 %48, !dbg !3307

49:                                               ; preds = %43
  unreachable
}

; Function Attrs: nofree nosync nounwind readnone speculatable willreturn
declare void @llvm.dbg.declare(metadata, metadata, metadata) #1

; Function Attrs: argmemonly nofree nosync nounwind willreturn
declare void @llvm.lifetime.start.p0i8(i64 immarg, i8* nocapture) #2

; Function Attrs: mustprogress ssp uwtable
define hidden i32 @halide_do_task(i8* noundef %0, i32 (i8*, i32, i8*)* noundef %1, i32 noundef %2, i8* noundef %3) #0 !dbg !3308 {
  %5 = alloca i8*, align 8
  %6 = alloca i32 (i8*, i32, i8*)*, align 8
  %7 = alloca i32, align 4
  %8 = alloca i8*, align 8
  store i8* %0, i8** %5, align 8, !tbaa !3266
  call void @llvm.dbg.declare(metadata i8** %5, metadata !3310, metadata !DIExpression()), !dbg !3314
  store i32 (i8*, i32, i8*)* %1, i32 (i8*, i32, i8*)** %6, align 8, !tbaa !3266
  call void @llvm.dbg.declare(metadata i32 (i8*, i32, i8*)** %6, metadata !3311, metadata !DIExpression()), !dbg !3315
  store i32 %2, i32* %7, align 4, !tbaa !3272
  call void @llvm.dbg.declare(metadata i32* %7, metadata !3312, metadata !DIExpression()), !dbg !3316
  store i8* %3, i8** %8, align 8, !tbaa !3266
  call void @llvm.dbg.declare(metadata i8** %8, metadata !3313, metadata !DIExpression()), !dbg !3317
  %9 = load i32 (i8*, i32 (i8*, i32, i8*)*, i32, i8*)*, i32 (i8*, i32 (i8*, i32, i8*)*, i32, i8*)** @custom_do_task, align 8, !dbg !3318, !tbaa !3266
  %10 = load i8*, i8** %5, align 8, !dbg !3319, !tbaa !3266
  %11 = load i32 (i8*, i32, i8*)*, i32 (i8*, i32, i8*)** %6, align 8, !dbg !3320, !tbaa !3266
  %12 = load i32, i32* %7, align 4, !dbg !3321, !tbaa !3272
  %13 = load i8*, i8** %8, align 8, !dbg !3322, !tbaa !3266
  %14 = call i32 %9(i8* noundef %10, i32 (i8*, i32, i8*)* noundef %11, i32 noundef %12, i8* noundef %13), !dbg !3323
  ret i32 %14, !dbg !3324
}

; Function Attrs: argmemonly nofree nosync nounwind willreturn
declare void @llvm.lifetime.end.p0i8(i64 immarg, i8* nocapture) #2

; Function Attrs: mustprogress ssp uwtable
define hidden i32 @halide_do_par_for(i8* noundef %0, i32 (i8*, i32, i8*)* noundef %1, i32 noundef %2, i32 noundef %3, i8* noundef %4) #0 !dbg !3325 {
  %6 = alloca i8*, align 8
  %7 = alloca i32 (i8*, i32, i8*)*, align 8
  %8 = alloca i32, align 4
  %9 = alloca i32, align 4
  %10 = alloca i8*, align 8
  store i8* %0, i8** %6, align 8, !tbaa !3266
  call void @llvm.dbg.declare(metadata i8** %6, metadata !3327, metadata !DIExpression()), !dbg !3332
  store i32 (i8*, i32, i8*)* %1, i32 (i8*, i32, i8*)** %7, align 8, !tbaa !3266
  call void @llvm.dbg.declare(metadata i32 (i8*, i32, i8*)** %7, metadata !3328, metadata !DIExpression()), !dbg !3333
  store i32 %2, i32* %8, align 4, !tbaa !3272
  call void @llvm.dbg.declare(metadata i32* %8, metadata !3329, metadata !DIExpression()), !dbg !3334
  store i32 %3, i32* %9, align 4, !tbaa !3272
  call void @llvm.dbg.declare(metadata i32* %9, metadata !3330, metadata !DIExpression()), !dbg !3335
  store i8* %4, i8** %10, align 8, !tbaa !3266
  call void @llvm.dbg.declare(metadata i8** %10, metadata !3331, metadata !DIExpression()), !dbg !3336
  %11 = load i32 (i8*, i32 (i8*, i32, i8*)*, i32, i32, i8*)*, i32 (i8*, i32 (i8*, i32, i8*)*, i32, i32, i8*)** @custom_do_par_for, align 8, !dbg !3337, !tbaa !3266
  %12 = load i8*, i8** %6, align 8, !dbg !3338, !tbaa !3266
  %13 = load i32 (i8*, i32, i8*)*, i32 (i8*, i32, i8*)** %7, align 8, !dbg !3339, !tbaa !3266
  %14 = load i32, i32* %8, align 4, !dbg !3340, !tbaa !3272
  %15 = load i32, i32* %9, align 4, !dbg !3341, !tbaa !3272
  %16 = load i8*, i8** %10, align 8, !dbg !3342, !tbaa !3266
  %17 = call i32 %11(i8* noundef %12, i32 (i8*, i32, i8*)* noundef %13, i32 noundef %14, i32 noundef %15, i8* noundef %16), !dbg !3343
  ret i32 %17, !dbg !3344
}

; Function Attrs: mustprogress ssp uwtable
define hidden i8* @aligned_malloc(i64 noundef %0, i64 noundef %1) #0 !dbg !3345 {
  %3 = alloca i8*, align 8
  %4 = alloca i64, align 8
  %5 = alloca i64, align 8
  %6 = alloca i8*, align 8
  %7 = alloca i32, align 4
  %8 = alloca i8*, align 8
  store i64 %0, i64* %4, align 8, !tbaa !3351
  call void @llvm.dbg.declare(metadata i64* %4, metadata !3347, metadata !DIExpression()), !dbg !3353
  store i64 %1, i64* %5, align 8, !tbaa !3351
  call void @llvm.dbg.declare(metadata i64* %5, metadata !3348, metadata !DIExpression()), !dbg !3354
  %9 = load i64, i64* %5, align 8, !dbg !3355, !tbaa !3351
  %10 = load i64, i64* %4, align 8, !dbg !3356, !tbaa !3351
  %11 = add i64 %9, %10, !dbg !3357
  %12 = sub i64 %11, 1, !dbg !3358
  %13 = load i64, i64* %4, align 8, !dbg !3359, !tbaa !3351
  %14 = sub i64 %13, 1, !dbg !3360
  %15 = xor i64 %14, -1, !dbg !3361
  %16 = and i64 %12, %15, !dbg !3362
  store i64 %16, i64* %5, align 8, !dbg !3363, !tbaa !3351
  %17 = bitcast i8** %6 to i8*, !dbg !3364
  call void @llvm.lifetime.start.p0i8(i64 8, i8* %17) #9, !dbg !3364
  call void @llvm.dbg.declare(metadata i8** %6, metadata !3349, metadata !DIExpression()), !dbg !3365
  %18 = load i64, i64* %5, align 8, !dbg !3366, !tbaa !3351
  %19 = load i64, i64* %4, align 8, !dbg !3367, !tbaa !3351
  %20 = add i64 %18, %19, !dbg !3368
  %21 = call i8* @malloc(i64 noundef %20) #26, !dbg !3369
  store i8* %21, i8** %6, align 8, !dbg !3365, !tbaa !3266
  %22 = load i8*, i8** %6, align 8, !dbg !3370, !tbaa !3266
  %23 = icmp eq i8* %22, null, !dbg !3372
  br i1 %23, label %24, label %25, !dbg !3373

24:                                               ; preds = %2
  store i8* null, i8** %3, align 8, !dbg !3374
  store i32 1, i32* %7, align 4
  br label %44, !dbg !3374

25:                                               ; preds = %2
  %26 = bitcast i8** %8 to i8*, !dbg !3376
  call void @llvm.lifetime.start.p0i8(i64 8, i8* %26) #9, !dbg !3376
  call void @llvm.dbg.declare(metadata i8** %8, metadata !3350, metadata !DIExpression()), !dbg !3377
  %27 = load i8*, i8** %6, align 8, !dbg !3378, !tbaa !3266
  %28 = ptrtoint i8* %27 to i64, !dbg !3379
  %29 = load i64, i64* %4, align 8, !dbg !3380, !tbaa !3351
  %30 = add i64 %28, %29, !dbg !3381
  %31 = add i64 %30, 8, !dbg !3382
  %32 = sub i64 %31, 1, !dbg !3383
  %33 = load i64, i64* %4, align 8, !dbg !3384, !tbaa !3351
  %34 = sub i64 %33, 1, !dbg !3385
  %35 = xor i64 %34, -1, !dbg !3386
  %36 = and i64 %32, %35, !dbg !3387
  %37 = inttoptr i64 %36 to i8*, !dbg !3388
  store i8* %37, i8** %8, align 8, !dbg !3377, !tbaa !3266
  %38 = load i8*, i8** %6, align 8, !dbg !3389, !tbaa !3266
  %39 = load i8*, i8** %8, align 8, !dbg !3390, !tbaa !3266
  %40 = bitcast i8* %39 to i8**, !dbg !3391
  %41 = getelementptr inbounds i8*, i8** %40, i64 -1, !dbg !3392
  store i8* %38, i8** %41, align 8, !dbg !3393, !tbaa !3266
  %42 = load i8*, i8** %8, align 8, !dbg !3394, !tbaa !3266
  store i8* %42, i8** %3, align 8, !dbg !3395
  store i32 1, i32* %7, align 4
  %43 = bitcast i8** %8 to i8*, !dbg !3396
  call void @llvm.lifetime.end.p0i8(i64 8, i8* %43) #9, !dbg !3396
  br label %44

44:                                               ; preds = %25, %24
  %45 = bitcast i8** %6 to i8*, !dbg !3396
  call void @llvm.lifetime.end.p0i8(i64 8, i8* %45) #9, !dbg !3396
  %46 = load i8*, i8** %3, align 8, !dbg !3396
  ret i8* %46, !dbg !3396
}

; Function Attrs: allocsize(0)
declare i8* @malloc(i64 noundef) #3

; Function Attrs: mustprogress ssp uwtable
define hidden i8* @halide_default_malloc(i8* noundef %0, i64 noundef %1) #0 !dbg !3397 {
  %3 = alloca i8*, align 8
  %4 = alloca i8*, align 8
  %5 = alloca i64, align 8
  %6 = alloca i64, align 8
  %7 = alloca i32, align 4
  %8 = alloca i32, align 4
  store i8* %0, i8** %4, align 8, !tbaa !3266
  call void @llvm.dbg.declare(metadata i8** %4, metadata !3399, metadata !DIExpression()), !dbg !3407
  store i64 %1, i64* %5, align 8, !tbaa !3351
  call void @llvm.dbg.declare(metadata i64* %5, metadata !3400, metadata !DIExpression()), !dbg !3408
  %9 = bitcast i64* %6 to i8*, !dbg !3409
  call void @llvm.lifetime.start.p0i8(i64 8, i8* %9) #9, !dbg !3409
  call void @llvm.dbg.declare(metadata i64* %6, metadata !3401, metadata !DIExpression()), !dbg !3410
  store i64 128, i64* %6, align 8, !dbg !3410, !tbaa !3351
  %10 = load i64, i64* %5, align 8, !dbg !3411, !tbaa !3351
  %11 = icmp ule i64 %10, 65536, !dbg !3412
  br i1 %11, label %12, label %49, !dbg !3413

12:                                               ; preds = %2
  %13 = bitcast i32* %7 to i8*, !dbg !3414
  call void @llvm.lifetime.start.p0i8(i64 4, i8* %13) #9, !dbg !3414
  call void @llvm.dbg.declare(metadata i32* %7, metadata !3403, metadata !DIExpression()), !dbg !3415
  store i32 0, i32* %7, align 4, !dbg !3415, !tbaa !3272
  br label %14, !dbg !3414

14:                                               ; preds = %42, %12
  %15 = load i32, i32* %7, align 4, !dbg !3416, !tbaa !3272
  %16 = icmp slt i32 %15, 10, !dbg !3418
  br i1 %16, label %18, label %17, !dbg !3419

17:                                               ; preds = %14
  store i32 2, i32* %8, align 4
  br label %45, !dbg !3419

18:                                               ; preds = %14
  %19 = load i32, i32* %7, align 4, !dbg !3420, !tbaa !3272
  %20 = sext i32 %19 to i64, !dbg !3423
  %21 = getelementptr inbounds i32, i32* getelementptr inbounds ([10 x i32], [10 x i32]* @buf_is_used, i64 0, i64 0), i64 %20, !dbg !3423
  %22 = cmpxchg i32* %21, i32 0, i32 1 seq_cst seq_cst, align 4, !dbg !3424
  %23 = extractvalue { i32, i1 } %22, 0, !dbg !3424
  %24 = icmp eq i32 %23, 0, !dbg !3425
  br i1 %24, label %25, label %41, !dbg !3426

25:                                               ; preds = %18
  %26 = load i32, i32* %7, align 4, !dbg !3427, !tbaa !3272
  %27 = sext i32 %26 to i64, !dbg !3430
  %28 = getelementptr inbounds [10 x i8*], [10 x i8*]* @mem_buf, i64 0, i64 %27, !dbg !3430
  %29 = load i8*, i8** %28, align 8, !dbg !3430, !tbaa !3266
  %30 = icmp eq i8* %29, null, !dbg !3431
  br i1 %30, label %31, label %36, !dbg !3432

31:                                               ; preds = %25
  %32 = call i8* @aligned_malloc(i64 noundef 128, i64 noundef 65536), !dbg !3433
  %33 = load i32, i32* %7, align 4, !dbg !3435, !tbaa !3272
  %34 = sext i32 %33 to i64, !dbg !3436
  %35 = getelementptr inbounds [10 x i8*], [10 x i8*]* @mem_buf, i64 0, i64 %34, !dbg !3436
  store i8* %32, i8** %35, align 8, !dbg !3437, !tbaa !3266
  br label %36, !dbg !3438

36:                                               ; preds = %31, %25
  %37 = load i32, i32* %7, align 4, !dbg !3439, !tbaa !3272
  %38 = sext i32 %37 to i64, !dbg !3440
  %39 = getelementptr inbounds [10 x i8*], [10 x i8*]* @mem_buf, i64 0, i64 %38, !dbg !3440
  %40 = load i8*, i8** %39, align 8, !dbg !3440, !tbaa !3266
  store i8* %40, i8** %3, align 8, !dbg !3441
  store i32 1, i32* %8, align 4
  br label %45, !dbg !3441

41:                                               ; preds = %18
  br label %42, !dbg !3442

42:                                               ; preds = %41
  %43 = load i32, i32* %7, align 4, !dbg !3443, !tbaa !3272
  %44 = add nsw i32 %43, 1, !dbg !3443
  store i32 %44, i32* %7, align 4, !dbg !3443, !tbaa !3272
  br label %14, !dbg !3444, !llvm.loop !3445

45:                                               ; preds = %36, %17
  %46 = bitcast i32* %7 to i8*, !dbg !3444
  call void @llvm.lifetime.end.p0i8(i64 4, i8* %46) #9, !dbg !3444
  %47 = load i32, i32* %8, align 4
  switch i32 %47, label %52 [
    i32 2, label %48
  ]

48:                                               ; preds = %45
  br label %49, !dbg !3447

49:                                               ; preds = %48, %2
  %50 = load i64, i64* %5, align 8, !dbg !3448, !tbaa !3351
  %51 = call i8* @aligned_malloc(i64 noundef 128, i64 noundef %50), !dbg !3449
  store i8* %51, i8** %3, align 8, !dbg !3450
  store i32 1, i32* %8, align 4
  br label %52, !dbg !3450

52:                                               ; preds = %49, %45
  %53 = bitcast i64* %6 to i8*, !dbg !3451
  call void @llvm.lifetime.end.p0i8(i64 8, i8* %53) #9, !dbg !3451
  %54 = load i8*, i8** %3, align 8, !dbg !3451
  ret i8* %54, !dbg !3451
}

; Function Attrs: mustprogress ssp uwtable
define hidden void @aligned_free(i8* noundef %0) #0 !dbg !3452 {
  %2 = alloca i8*, align 8
  store i8* %0, i8** %2, align 8, !tbaa !3266
  call void @llvm.dbg.declare(metadata i8** %2, metadata !3454, metadata !DIExpression()), !dbg !3455
  %3 = load i8*, i8** %2, align 8, !dbg !3456, !tbaa !3266
  %4 = icmp ne i8* %3, null, !dbg !3456
  br i1 %4, label %5, label %10, !dbg !3458

5:                                                ; preds = %1
  %6 = load i8*, i8** %2, align 8, !dbg !3459, !tbaa !3266
  %7 = bitcast i8* %6 to i8**, !dbg !3461
  %8 = getelementptr inbounds i8*, i8** %7, i64 -1, !dbg !3462
  %9 = load i8*, i8** %8, align 8, !dbg !3462, !tbaa !3266
  call void @free(i8* noundef %9), !dbg !3463
  br label %10, !dbg !3464

10:                                               ; preds = %5, %1
  ret void, !dbg !3465
}

declare void @free(i8* noundef) #4

; Function Attrs: mustprogress ssp uwtable
define hidden void @halide_default_free(i8* noundef %0, i8* noundef %1) #0 !dbg !3466 {
  %3 = alloca i8*, align 8
  %4 = alloca i8*, align 8
  %5 = alloca i32, align 4
  %6 = alloca i32, align 4
  store i8* %0, i8** %3, align 8, !tbaa !3266
  call void @llvm.dbg.declare(metadata i8** %3, metadata !3470, metadata !DIExpression()), !dbg !3474
  store i8* %1, i8** %4, align 8, !tbaa !3266
  call void @llvm.dbg.declare(metadata i8** %4, metadata !3471, metadata !DIExpression()), !dbg !3475
  %7 = bitcast i32* %5 to i8*, !dbg !3476
  call void @llvm.lifetime.start.p0i8(i64 4, i8* %7) #9, !dbg !3476
  call void @llvm.dbg.declare(metadata i32* %5, metadata !3472, metadata !DIExpression()), !dbg !3477
  store i32 0, i32* %5, align 4, !dbg !3477, !tbaa !3272
  br label %8, !dbg !3476

8:                                                ; preds = %24, %2
  %9 = load i32, i32* %5, align 4, !dbg !3478, !tbaa !3272
  %10 = icmp slt i32 %9, 10, !dbg !3480
  br i1 %10, label %12, label %11, !dbg !3481

11:                                               ; preds = %8
  store i32 2, i32* %6, align 4
  br label %27, !dbg !3481

12:                                               ; preds = %8
  %13 = load i32, i32* %5, align 4, !dbg !3482, !tbaa !3272
  %14 = sext i32 %13 to i64, !dbg !3485
  %15 = getelementptr inbounds [10 x i8*], [10 x i8*]* @mem_buf, i64 0, i64 %14, !dbg !3485
  %16 = load i8*, i8** %15, align 8, !dbg !3485, !tbaa !3266
  %17 = load i8*, i8** %4, align 8, !dbg !3486, !tbaa !3266
  %18 = icmp eq i8* %16, %17, !dbg !3487
  br i1 %18, label %19, label %23, !dbg !3488

19:                                               ; preds = %12
  %20 = load i32, i32* %5, align 4, !dbg !3489, !tbaa !3272
  %21 = sext i32 %20 to i64, !dbg !3491
  %22 = getelementptr inbounds [10 x i32], [10 x i32]* @buf_is_used, i64 0, i64 %21, !dbg !3491
  store i32 0, i32* %22, align 4, !dbg !3492, !tbaa !3272
  store i32 1, i32* %6, align 4
  br label %27, !dbg !3493

23:                                               ; preds = %12
  br label %24, !dbg !3494

24:                                               ; preds = %23
  %25 = load i32, i32* %5, align 4, !dbg !3495, !tbaa !3272
  %26 = add nsw i32 %25, 1, !dbg !3495
  store i32 %26, i32* %5, align 4, !dbg !3495, !tbaa !3272
  br label %8, !dbg !3496, !llvm.loop !3497

27:                                               ; preds = %19, %11
  %28 = bitcast i32* %5 to i8*, !dbg !3496
  call void @llvm.lifetime.end.p0i8(i64 4, i8* %28) #9, !dbg !3496
  %29 = load i32, i32* %6, align 4
  switch i32 %29, label %33 [
    i32 2, label %30
    i32 1, label %32
  ]

30:                                               ; preds = %27
  %31 = load i8*, i8** %4, align 8, !dbg !3499, !tbaa !3266
  call void @aligned_free(i8* noundef %31), !dbg !3500
  br label %32, !dbg !3501

32:                                               ; preds = %30, %27
  ret void, !dbg !3501

33:                                               ; preds = %27
  unreachable
}

; Function Attrs: mustprogress ssp uwtable
define hidden i8* @halide_malloc(i8* noundef %0, i64 noundef %1) #0 !dbg !3502 {
  %3 = alloca i8*, align 8
  %4 = alloca i64, align 8
  store i8* %0, i8** %3, align 8, !tbaa !3266
  call void @llvm.dbg.declare(metadata i8** %3, metadata !3504, metadata !DIExpression()), !dbg !3506
  store i64 %1, i64* %4, align 8, !tbaa !3351
  call void @llvm.dbg.declare(metadata i64* %4, metadata !3505, metadata !DIExpression()), !dbg !3507
  %5 = load i8*, i8** %3, align 8, !dbg !3508, !tbaa !3266
  %6 = load i64, i64* %4, align 8, !dbg !3509, !tbaa !3351
  %7 = call i8* @halide_default_malloc(i8* noundef %5, i64 noundef %6), !dbg !3510
  ret i8* %7, !dbg !3511
}

; Function Attrs: mustprogress ssp uwtable
define hidden void @halide_print(i8* noundef %0, i8* noundef %1) #0 !dbg !3512 {
  %3 = alloca i8*, align 8
  %4 = alloca i8*, align 8
  store i8* %0, i8** %3, align 8, !tbaa !3266
  call void @llvm.dbg.declare(metadata i8** %3, metadata !3516, metadata !DIExpression()), !dbg !3518
  store i8* %1, i8** %4, align 8, !tbaa !3266
  call void @llvm.dbg.declare(metadata i8** %4, metadata !3517, metadata !DIExpression()), !dbg !3519
  %5 = load i8*, i8** %4, align 8, !dbg !3520, !tbaa !3266
  %6 = call noundef nonnull align 8 dereferenceable(8) %"class.std::__1::basic_ostream"* @_ZNSt3__1lsINS_11char_traitsIcEEEERNS_13basic_ostreamIcT_EES6_PKc(%"class.std::__1::basic_ostream"* noundef nonnull align 8 dereferenceable(8) @_ZNSt3__14coutE, i8* noundef %5), !dbg !3521
  ret void, !dbg !3522
}

; Function Attrs: mustprogress ssp uwtable
define linkonce_odr hidden noundef nonnull align 8 dereferenceable(8) %"class.std::__1::basic_ostream"* @_ZNSt3__1lsINS_11char_traitsIcEEEERNS_13basic_ostreamIcT_EES6_PKc(%"class.std::__1::basic_ostream"* noundef nonnull align 8 dereferenceable(8) %0, i8* noundef %1) #0 !dbg !3523 {
  %3 = alloca %"class.std::__1::basic_ostream"*, align 8
  %4 = alloca i8*, align 8
  store %"class.std::__1::basic_ostream"* %0, %"class.std::__1::basic_ostream"** %3, align 8, !tbaa !3266
  call void @llvm.dbg.declare(metadata %"class.std::__1::basic_ostream"** %3, metadata !3527, metadata !DIExpression()), !dbg !3530
  store i8* %1, i8** %4, align 8, !tbaa !3266
  call void @llvm.dbg.declare(metadata i8** %4, metadata !3528, metadata !DIExpression()), !dbg !3531
  %5 = load %"class.std::__1::basic_ostream"*, %"class.std::__1::basic_ostream"** %3, align 8, !dbg !3532, !tbaa !3266
  %6 = load i8*, i8** %4, align 8, !dbg !3533, !tbaa !3266
  %7 = load i8*, i8** %4, align 8, !dbg !3534, !tbaa !3266
  %8 = call noundef i64 @_ZNSt3__111char_traitsIcE6lengthEPKc(i8* noundef %7) #9, !dbg !3535
  %9 = call noundef nonnull align 8 dereferenceable(8) %"class.std::__1::basic_ostream"* @_ZNSt3__124__put_character_sequenceIcNS_11char_traitsIcEEEERNS_13basic_ostreamIT_T0_EES7_PKS4_m(%"class.std::__1::basic_ostream"* noundef nonnull align 8 dereferenceable(8) %5, i8* noundef %6, i64 noundef %8), !dbg !3536
  ret %"class.std::__1::basic_ostream"* %9, !dbg !3537
}

; Function Attrs: mustprogress ssp uwtable
define hidden void @halide_free(i8* noundef %0, i8* noundef %1) #0 !dbg !3538 {
  %3 = alloca i8*, align 8
  %4 = alloca i8*, align 8
  store i8* %0, i8** %3, align 8, !tbaa !3266
  call void @llvm.dbg.declare(metadata i8** %3, metadata !3540, metadata !DIExpression()), !dbg !3542
  store i8* %1, i8** %4, align 8, !tbaa !3266
  call void @llvm.dbg.declare(metadata i8** %4, metadata !3541, metadata !DIExpression()), !dbg !3543
  %5 = load i8*, i8** %3, align 8, !dbg !3544, !tbaa !3266
  %6 = load i8*, i8** %4, align 8, !dbg !3545, !tbaa !3266
  call void @halide_default_free(i8* noundef %5, i8* noundef %6), !dbg !3546
  ret void, !dbg !3547
}

; Function Attrs: mustprogress ssp uwtable
define hidden i32 @halide_error_out_of_memory(i8* noundef %0) #0 !dbg !3548 {
  %2 = alloca i8*, align 8
  store i8* %0, i8** %2, align 8, !tbaa !3266
  call void @llvm.dbg.declare(metadata i8** %2, metadata !3550, metadata !DIExpression()), !dbg !3551
  %3 = load i8*, i8** %2, align 8, !dbg !3552, !tbaa !3266
  call void @halide_error(i8* noundef %3, i8* noundef getelementptr inbounds ([47 x i8], [47 x i8]* @.str, i64 0, i64 0)), !dbg !3553
  ret i32 -11, !dbg !3554
}

; Function Attrs: mustprogress ssp uwtable
define hidden void @halide_error(i8* noundef %0, i8* noundef %1) #0 !dbg !3555 {
  %3 = alloca i8*, align 8
  %4 = alloca i8*, align 8
  store i8* %0, i8** %3, align 8, !tbaa !3266
  call void @llvm.dbg.declare(metadata i8** %3, metadata !3557, metadata !DIExpression()), !dbg !3559
  store i8* %1, i8** %4, align 8, !tbaa !3266
  call void @llvm.dbg.declare(metadata i8** %4, metadata !3558, metadata !DIExpression()), !dbg !3560
  %5 = load i8*, i8** %3, align 8, !dbg !3561, !tbaa !3266
  %6 = load i8*, i8** %4, align 8, !dbg !3562, !tbaa !3266
  call void @halide_print(i8* noundef %5, i8* noundef %6), !dbg !3563
  ret void, !dbg !3564
}

; Function Attrs: mustprogress ssp uwtable
define hidden i32 @halide_error_device_dirty_with_no_device_support(i8* noundef %0, i8* noundef %1) #0 !dbg !3565 {
  %3 = alloca i8*, align 8
  %4 = alloca i8*, align 8
  store i8* %0, i8** %3, align 8, !tbaa !3266
  call void @llvm.dbg.declare(metadata i8** %3, metadata !3569, metadata !DIExpression()), !dbg !3571
  store i8* %1, i8** %4, align 8, !tbaa !3266
  call void @llvm.dbg.declare(metadata i8** %4, metadata !3570, metadata !DIExpression()), !dbg !3572
  %5 = call noundef nonnull align 8 dereferenceable(8) %"class.std::__1::basic_ostream"* @_ZNSt3__1lsINS_11char_traitsIcEEEERNS_13basic_ostreamIcT_EES6_PKc(%"class.std::__1::basic_ostream"* noundef nonnull align 8 dereferenceable(8) @_ZNSt3__14cerrE, i8* noundef getelementptr inbounds ([12 x i8], [12 x i8]* @.str.1, i64 0, i64 0)), !dbg !3573
  %6 = load i8*, i8** %4, align 8, !dbg !3574, !tbaa !3266
  %7 = call noundef nonnull align 8 dereferenceable(8) %"class.std::__1::basic_ostream"* @_ZNSt3__1lsINS_11char_traitsIcEEEERNS_13basic_ostreamIcT_EES6_PKc(%"class.std::__1::basic_ostream"* noundef nonnull align 8 dereferenceable(8) %5, i8* noundef %6), !dbg !3575
  %8 = call noundef nonnull align 8 dereferenceable(8) %"class.std::__1::basic_ostream"* @_ZNSt3__1lsINS_11char_traitsIcEEEERNS_13basic_ostreamIcT_EES6_PKc(%"class.std::__1::basic_ostream"* noundef nonnull align 8 dereferenceable(8) %7, i8* noundef getelementptr inbounds ([53 x i8], [53 x i8]* @.str.2, i64 0, i64 0)), !dbg !3576
  %9 = call noundef nonnull align 8 dereferenceable(8) %"class.std::__1::basic_ostream"* @_ZNSt3__1lsINS_11char_traitsIcEEEERNS_13basic_ostreamIcT_EES6_PKc(%"class.std::__1::basic_ostream"* noundef nonnull align 8 dereferenceable(8) %8, i8* noundef getelementptr inbounds ([43 x i8], [43 x i8]* @.str.3, i64 0, i64 0)), !dbg !3577
  ret i32 -44, !dbg !3578
}

; Function Attrs: mustprogress ssp uwtable
define hidden i32 @halide_error_host_is_null(i8* noundef %0, i8* noundef %1) #0 !dbg !3579 {
  %3 = alloca i8*, align 8
  %4 = alloca i8*, align 8
  store i8* %0, i8** %3, align 8, !tbaa !3266
  call void @llvm.dbg.declare(metadata i8** %3, metadata !3581, metadata !DIExpression()), !dbg !3583
  store i8* %1, i8** %4, align 8, !tbaa !3266
  call void @llvm.dbg.declare(metadata i8** %4, metadata !3582, metadata !DIExpression()), !dbg !3584
  %5 = call noundef nonnull align 8 dereferenceable(8) %"class.std::__1::basic_ostream"* @_ZNSt3__1lsINS_11char_traitsIcEEEERNS_13basic_ostreamIcT_EES6_PKc(%"class.std::__1::basic_ostream"* noundef nonnull align 8 dereferenceable(8) @_ZNSt3__14cerrE, i8* noundef getelementptr inbounds ([21 x i8], [21 x i8]* @.str.4, i64 0, i64 0)), !dbg !3585
  %6 = load i8*, i8** %4, align 8, !dbg !3586, !tbaa !3266
  %7 = call noundef nonnull align 8 dereferenceable(8) %"class.std::__1::basic_ostream"* @_ZNSt3__1lsINS_11char_traitsIcEEEERNS_13basic_ostreamIcT_EES6_PKc(%"class.std::__1::basic_ostream"* noundef nonnull align 8 dereferenceable(8) %5, i8* noundef %6), !dbg !3587
  %8 = call noundef nonnull align 8 dereferenceable(8) %"class.std::__1::basic_ostream"* @_ZNSt3__1lsINS_11char_traitsIcEEEERNS_13basic_ostreamIcT_EES6_PKc(%"class.std::__1::basic_ostream"* noundef nonnull align 8 dereferenceable(8) %7, i8* noundef getelementptr inbounds ([55 x i8], [55 x i8]* @.str.5, i64 0, i64 0)), !dbg !3588
  ret i32 -34, !dbg !3589
}

; Function Attrs: mustprogress ssp uwtable
define hidden i32 @halide_error_constraint_violated(i8* noundef %0, i8* noundef %1, i32 noundef %2, i8* noundef %3, i32 noundef %4) #0 !dbg !3590 {
  %6 = alloca i8*, align 8
  %7 = alloca i8*, align 8
  %8 = alloca i32, align 4
  %9 = alloca i8*, align 8
  %10 = alloca i32, align 4
  store i8* %0, i8** %6, align 8, !tbaa !3266
  call void @llvm.dbg.declare(metadata i8** %6, metadata !3594, metadata !DIExpression()), !dbg !3599
  store i8* %1, i8** %7, align 8, !tbaa !3266
  call void @llvm.dbg.declare(metadata i8** %7, metadata !3595, metadata !DIExpression()), !dbg !3600
  store i32 %2, i32* %8, align 4, !tbaa !3272
  call void @llvm.dbg.declare(metadata i32* %8, metadata !3596, metadata !DIExpression()), !dbg !3601
  store i8* %3, i8** %9, align 8, !tbaa !3266
  call void @llvm.dbg.declare(metadata i8** %9, metadata !3597, metadata !DIExpression()), !dbg !3602
  store i32 %4, i32* %10, align 4, !tbaa !3272
  call void @llvm.dbg.declare(metadata i32* %10, metadata !3598, metadata !DIExpression()), !dbg !3603
  %11 = call noundef nonnull align 8 dereferenceable(8) %"class.std::__1::basic_ostream"* @_ZNSt3__1lsINS_11char_traitsIcEEEERNS_13basic_ostreamIcT_EES6_PKc(%"class.std::__1::basic_ostream"* noundef nonnull align 8 dereferenceable(8) @_ZNSt3__14cerrE, i8* noundef getelementptr inbounds ([22 x i8], [22 x i8]* @.str.6, i64 0, i64 0)), !dbg !3604
  %12 = load i8*, i8** %7, align 8, !dbg !3605, !tbaa !3266
  %13 = call noundef nonnull align 8 dereferenceable(8) %"class.std::__1::basic_ostream"* @_ZNSt3__1lsINS_11char_traitsIcEEEERNS_13basic_ostreamIcT_EES6_PKc(%"class.std::__1::basic_ostream"* noundef nonnull align 8 dereferenceable(8) %11, i8* noundef %12), !dbg !3606
  %14 = call noundef nonnull align 8 dereferenceable(8) %"class.std::__1::basic_ostream"* @_ZNSt3__1lsINS_11char_traitsIcEEEERNS_13basic_ostreamIcT_EES6_PKc(%"class.std::__1::basic_ostream"* noundef nonnull align 8 dereferenceable(8) %13, i8* noundef getelementptr inbounds ([3 x i8], [3 x i8]* @.str.7, i64 0, i64 0)), !dbg !3607
  %15 = load i32, i32* %8, align 4, !dbg !3608, !tbaa !3272
  %16 = call noundef nonnull align 8 dereferenceable(8) %"class.std::__1::basic_ostream"* @_ZNSt3__113basic_ostreamIcNS_11char_traitsIcEEElsEi(%"class.std::__1::basic_ostream"* noundef nonnull align 8 dereferenceable(8) %14, i32 noundef %15), !dbg !3609
  %17 = call noundef nonnull align 8 dereferenceable(8) %"class.std::__1::basic_ostream"* @_ZNSt3__1lsINS_11char_traitsIcEEEERNS_13basic_ostreamIcT_EES6_PKc(%"class.std::__1::basic_ostream"* noundef nonnull align 8 dereferenceable(8) %16, i8* noundef getelementptr inbounds ([6 x i8], [6 x i8]* @.str.8, i64 0, i64 0)), !dbg !3610
  %18 = load i8*, i8** %9, align 8, !dbg !3611, !tbaa !3266
  %19 = call noundef nonnull align 8 dereferenceable(8) %"class.std::__1::basic_ostream"* @_ZNSt3__1lsINS_11char_traitsIcEEEERNS_13basic_ostreamIcT_EES6_PKc(%"class.std::__1::basic_ostream"* noundef nonnull align 8 dereferenceable(8) %17, i8* noundef %18), !dbg !3612
  %20 = call noundef nonnull align 8 dereferenceable(8) %"class.std::__1::basic_ostream"* @_ZNSt3__1lsINS_11char_traitsIcEEEERNS_13basic_ostreamIcT_EES6_PKc(%"class.std::__1::basic_ostream"* noundef nonnull align 8 dereferenceable(8) %19, i8* noundef getelementptr inbounds ([3 x i8], [3 x i8]* @.str.7, i64 0, i64 0)), !dbg !3613
  %21 = load i32, i32* %10, align 4, !dbg !3614, !tbaa !3272
  %22 = call noundef nonnull align 8 dereferenceable(8) %"class.std::__1::basic_ostream"* @_ZNSt3__113basic_ostreamIcNS_11char_traitsIcEEElsEi(%"class.std::__1::basic_ostream"* noundef nonnull align 8 dereferenceable(8) %20, i32 noundef %21), !dbg !3615
  %23 = call noundef nonnull align 8 dereferenceable(8) %"class.std::__1::basic_ostream"* @_ZNSt3__1lsINS_11char_traitsIcEEEERNS_13basic_ostreamIcT_EES6_PKc(%"class.std::__1::basic_ostream"* noundef nonnull align 8 dereferenceable(8) %22, i8* noundef getelementptr inbounds ([2 x i8], [2 x i8]* @.str.9, i64 0, i64 0)), !dbg !3616
  ret i32 -8, !dbg !3617
}

declare noundef nonnull align 8 dereferenceable(8) %"class.std::__1::basic_ostream"* @_ZNSt3__113basic_ostreamIcNS_11char_traitsIcEEElsEi(%"class.std::__1::basic_ostream"* noundef nonnull align 8 dereferenceable(8), i32 noundef) #4

; Function Attrs: mustprogress ssp uwtable
define hidden i32 @halide_error_buffer_argument_is_null(i8* noundef %0, i8* noundef %1) #0 !dbg !3618 {
  %3 = alloca i8*, align 8
  %4 = alloca i8*, align 8
  store i8* %0, i8** %3, align 8, !tbaa !3266
  call void @llvm.dbg.declare(metadata i8** %3, metadata !3620, metadata !DIExpression()), !dbg !3622
  store i8* %1, i8** %4, align 8, !tbaa !3266
  call void @llvm.dbg.declare(metadata i8** %4, metadata !3621, metadata !DIExpression()), !dbg !3623
  %5 = call noundef nonnull align 8 dereferenceable(8) %"class.std::__1::basic_ostream"* @_ZNSt3__1lsINS_11char_traitsIcEEEERNS_13basic_ostreamIcT_EES6_PKc(%"class.std::__1::basic_ostream"* noundef nonnull align 8 dereferenceable(8) @_ZNSt3__14cerrE, i8* noundef getelementptr inbounds ([17 x i8], [17 x i8]* @.str.10, i64 0, i64 0)), !dbg !3624
  %6 = load i8*, i8** %4, align 8, !dbg !3625, !tbaa !3266
  %7 = call noundef nonnull align 8 dereferenceable(8) %"class.std::__1::basic_ostream"* @_ZNSt3__1lsINS_11char_traitsIcEEEERNS_13basic_ostreamIcT_EES6_PKc(%"class.std::__1::basic_ostream"* noundef nonnull align 8 dereferenceable(8) %5, i8* noundef %6), !dbg !3626
  %8 = call noundef nonnull align 8 dereferenceable(8) %"class.std::__1::basic_ostream"* @_ZNSt3__1lsINS_11char_traitsIcEEEERNS_13basic_ostreamIcT_EES6_PKc(%"class.std::__1::basic_ostream"* noundef nonnull align 8 dereferenceable(8) %7, i8* noundef getelementptr inbounds ([12 x i8], [12 x i8]* @.str.11, i64 0, i64 0)), !dbg !3627
  ret i32 -12, !dbg !3628
}

; Function Attrs: mustprogress ssp uwtable
define hidden i32 @halide_error_bad_type(i8* noundef %0, i8* noundef %1, i32 noundef %2, i32 noundef %3) #0 !dbg !3629 {
  %5 = alloca i8*, align 8
  %6 = alloca i8*, align 8
  %7 = alloca i32, align 4
  %8 = alloca i32, align 4
  %9 = alloca %struct.halide_type_t, align 2
  %10 = alloca %struct.halide_type_t, align 2
  store i8* %0, i8** %5, align 8, !tbaa !3266
  call void @llvm.dbg.declare(metadata i8** %5, metadata !3633, metadata !DIExpression()), !dbg !3639
  store i8* %1, i8** %6, align 8, !tbaa !3266
  call void @llvm.dbg.declare(metadata i8** %6, metadata !3634, metadata !DIExpression()), !dbg !3640
  store i32 %2, i32* %7, align 4, !tbaa !3272
  call void @llvm.dbg.declare(metadata i32* %7, metadata !3635, metadata !DIExpression()), !dbg !3641
  store i32 %3, i32* %8, align 4, !tbaa !3272
  call void @llvm.dbg.declare(metadata i32* %8, metadata !3636, metadata !DIExpression()), !dbg !3642
  %11 = bitcast %struct.halide_type_t* %9 to i8*, !dbg !3643
  call void @llvm.lifetime.start.p0i8(i64 4, i8* %11) #9, !dbg !3643
  call void @llvm.dbg.declare(metadata %struct.halide_type_t* %9, metadata !3637, metadata !DIExpression()), !dbg !3644
  call void @_ZN13halide_type_tC1Ev(%struct.halide_type_t* noundef nonnull align 2 dereferenceable(4) %9), !dbg !3644
  %12 = bitcast %struct.halide_type_t* %10 to i8*, !dbg !3643
  call void @llvm.lifetime.start.p0i8(i64 4, i8* %12) #9, !dbg !3643
  call void @llvm.dbg.declare(metadata %struct.halide_type_t* %10, metadata !3638, metadata !DIExpression()), !dbg !3645
  call void @_ZN13halide_type_tC1Ev(%struct.halide_type_t* noundef nonnull align 2 dereferenceable(4) %10), !dbg !3645
  %13 = bitcast %struct.halide_type_t* %9 to i8*, !dbg !3646
  %14 = bitcast i32* %8 to i8*, !dbg !3646
  call void @llvm.memcpy.p0i8.p0i8.i64(i8* align 2 %13, i8* align 4 %14, i64 4, i1 false), !dbg !3646
  %15 = bitcast %struct.halide_type_t* %10 to i8*, !dbg !3647
  %16 = bitcast i32* %7 to i8*, !dbg !3647
  call void @llvm.memcpy.p0i8.p0i8.i64(i8* align 2 %15, i8* align 4 %16, i64 4, i1 false), !dbg !3647
  %17 = load i8*, i8** %6, align 8, !dbg !3648, !tbaa !3266
  %18 = call noundef nonnull align 8 dereferenceable(8) %"class.std::__1::basic_ostream"* @_ZNSt3__1lsINS_11char_traitsIcEEEERNS_13basic_ostreamIcT_EES6_PKc(%"class.std::__1::basic_ostream"* noundef nonnull align 8 dereferenceable(8) @_ZNSt3__14cerrE, i8* noundef %17), !dbg !3649
  %19 = call noundef nonnull align 8 dereferenceable(8) %"class.std::__1::basic_ostream"* @_ZNSt3__1lsINS_11char_traitsIcEEEERNS_13basic_ostreamIcT_EES6_PKc(%"class.std::__1::basic_ostream"* noundef nonnull align 8 dereferenceable(8) %18, i8* noundef getelementptr inbounds ([11 x i8], [11 x i8]* @.str.12, i64 0, i64 0)), !dbg !3650
  %20 = bitcast %struct.halide_type_t* %10 to i8*, !dbg !3651
  call void @llvm.lifetime.end.p0i8(i64 4, i8* %20) #9, !dbg !3651
  %21 = bitcast %struct.halide_type_t* %9 to i8*, !dbg !3651
  call void @llvm.lifetime.end.p0i8(i64 4, i8* %21) #9, !dbg !3651
  ret i32 -3, !dbg !3652
}

; Function Attrs: alwaysinline ssp uwtable
define linkonce_odr hidden void @_ZN13halide_type_tC1Ev(%struct.halide_type_t* noundef nonnull align 2 dereferenceable(4) %0) unnamed_addr #5 align 2 !dbg !3653 {
  %2 = alloca %struct.halide_type_t*, align 8
  store %struct.halide_type_t* %0, %struct.halide_type_t** %2, align 8, !tbaa !3266
  call void @llvm.dbg.declare(metadata %struct.halide_type_t** %2, metadata !3655, metadata !DIExpression()), !dbg !3657
  %3 = load %struct.halide_type_t*, %struct.halide_type_t** %2, align 8
  call void @_ZN13halide_type_tC2Ev(%struct.halide_type_t* noundef nonnull align 2 dereferenceable(4) %3), !dbg !3658
  ret void, !dbg !3659
}

; Function Attrs: argmemonly nofree nounwind willreturn
declare void @llvm.memcpy.p0i8.p0i8.i64(i8* noalias nocapture writeonly, i8* noalias nocapture readonly, i64, i1 immarg) #6

; Function Attrs: mustprogress ssp uwtable
define hidden i32 @halide_error_buffer_allocation_too_large(i8* noundef %0, i8* noundef %1, i64 noundef %2, i64 noundef %3) #0 !dbg !3660 {
  %5 = alloca i8*, align 8
  %6 = alloca i8*, align 8
  %7 = alloca i64, align 8
  %8 = alloca i64, align 8
  store i8* %0, i8** %5, align 8, !tbaa !3266
  call void @llvm.dbg.declare(metadata i8** %5, metadata !3664, metadata !DIExpression()), !dbg !3668
  store i8* %1, i8** %6, align 8, !tbaa !3266
  call void @llvm.dbg.declare(metadata i8** %6, metadata !3665, metadata !DIExpression()), !dbg !3669
  store i64 %2, i64* %7, align 8, !tbaa !3670
  call void @llvm.dbg.declare(metadata i64* %7, metadata !3666, metadata !DIExpression()), !dbg !3672
  store i64 %3, i64* %8, align 8, !tbaa !3670
  call void @llvm.dbg.declare(metadata i64* %8, metadata !3667, metadata !DIExpression()), !dbg !3673
  %9 = call noundef nonnull align 8 dereferenceable(8) %"class.std::__1::basic_ostream"* @_ZNSt3__1lsINS_11char_traitsIcEEEERNS_13basic_ostreamIcT_EES6_PKc(%"class.std::__1::basic_ostream"* noundef nonnull align 8 dereferenceable(8) @_ZNSt3__14cerrE, i8* noundef getelementptr inbounds ([29 x i8], [29 x i8]* @.str.13, i64 0, i64 0)), !dbg !3674
  %10 = load i8*, i8** %6, align 8, !dbg !3675, !tbaa !3266
  %11 = call noundef nonnull align 8 dereferenceable(8) %"class.std::__1::basic_ostream"* @_ZNSt3__1lsINS_11char_traitsIcEEEERNS_13basic_ostreamIcT_EES6_PKc(%"class.std::__1::basic_ostream"* noundef nonnull align 8 dereferenceable(8) %9, i8* noundef %10), !dbg !3676
  %12 = call noundef nonnull align 8 dereferenceable(8) %"class.std::__1::basic_ostream"* @_ZNSt3__1lsINS_11char_traitsIcEEEERNS_13basic_ostreamIcT_EES6_PKc(%"class.std::__1::basic_ostream"* noundef nonnull align 8 dereferenceable(8) %11, i8* noundef getelementptr inbounds ([5 x i8], [5 x i8]* @.str.14, i64 0, i64 0)), !dbg !3677
  %13 = load i64, i64* %7, align 8, !dbg !3678, !tbaa !3670
  %14 = call noundef nonnull align 8 dereferenceable(8) %"class.std::__1::basic_ostream"* @_ZNSt3__113basic_ostreamIcNS_11char_traitsIcEEElsEy(%"class.std::__1::basic_ostream"* noundef nonnull align 8 dereferenceable(8) %12, i64 noundef %13), !dbg !3679
  %15 = call noundef nonnull align 8 dereferenceable(8) %"class.std::__1::basic_ostream"* @_ZNSt3__1lsINS_11char_traitsIcEEEERNS_13basic_ostreamIcT_EES6_PKc(%"class.std::__1::basic_ostream"* noundef nonnull align 8 dereferenceable(8) %14, i8* noundef getelementptr inbounds ([37 x i8], [37 x i8]* @.str.15, i64 0, i64 0)), !dbg !3680
  %16 = load i64, i64* %8, align 8, !dbg !3681, !tbaa !3670
  %17 = call noundef nonnull align 8 dereferenceable(8) %"class.std::__1::basic_ostream"* @_ZNSt3__113basic_ostreamIcNS_11char_traitsIcEEElsEy(%"class.std::__1::basic_ostream"* noundef nonnull align 8 dereferenceable(8) %15, i64 noundef %16), !dbg !3682
  ret i32 -5, !dbg !3683
}

declare noundef nonnull align 8 dereferenceable(8) %"class.std::__1::basic_ostream"* @_ZNSt3__113basic_ostreamIcNS_11char_traitsIcEEElsEy(%"class.std::__1::basic_ostream"* noundef nonnull align 8 dereferenceable(8), i64 noundef) #4

; Function Attrs: mustprogress ssp uwtable
define hidden i32 @halide_error_buffer_extents_negative(i8* noundef %0, i8* noundef %1, i32 noundef %2, i32 noundef %3) #0 !dbg !3684 {
  %5 = alloca i8*, align 8
  %6 = alloca i8*, align 8
  %7 = alloca i32, align 4
  %8 = alloca i32, align 4
  store i8* %0, i8** %5, align 8, !tbaa !3266
  call void @llvm.dbg.declare(metadata i8** %5, metadata !3688, metadata !DIExpression()), !dbg !3692
  store i8* %1, i8** %6, align 8, !tbaa !3266
  call void @llvm.dbg.declare(metadata i8** %6, metadata !3689, metadata !DIExpression()), !dbg !3693
  store i32 %2, i32* %7, align 4, !tbaa !3272
  call void @llvm.dbg.declare(metadata i32* %7, metadata !3690, metadata !DIExpression()), !dbg !3694
  store i32 %3, i32* %8, align 4, !tbaa !3272
  call void @llvm.dbg.declare(metadata i32* %8, metadata !3691, metadata !DIExpression()), !dbg !3695
  %9 = call noundef nonnull align 8 dereferenceable(8) %"class.std::__1::basic_ostream"* @_ZNSt3__1lsINS_11char_traitsIcEEEERNS_13basic_ostreamIcT_EES6_PKc(%"class.std::__1::basic_ostream"* noundef nonnull align 8 dereferenceable(8) @_ZNSt3__14cerrE, i8* noundef getelementptr inbounds ([24 x i8], [24 x i8]* @.str.16, i64 0, i64 0)), !dbg !3696
  %10 = load i8*, i8** %6, align 8, !dbg !3697, !tbaa !3266
  %11 = call noundef nonnull align 8 dereferenceable(8) %"class.std::__1::basic_ostream"* @_ZNSt3__1lsINS_11char_traitsIcEEEERNS_13basic_ostreamIcT_EES6_PKc(%"class.std::__1::basic_ostream"* noundef nonnull align 8 dereferenceable(8) %9, i8* noundef %10), !dbg !3698
  %12 = call noundef nonnull align 8 dereferenceable(8) %"class.std::__1::basic_ostream"* @_ZNSt3__1lsINS_11char_traitsIcEEEERNS_13basic_ostreamIcT_EES6_PKc(%"class.std::__1::basic_ostream"* noundef nonnull align 8 dereferenceable(8) %11, i8* noundef getelementptr inbounds ([12 x i8], [12 x i8]* @.str.17, i64 0, i64 0)), !dbg !3699
  %13 = load i32, i32* %7, align 4, !dbg !3700, !tbaa !3272
  %14 = call noundef nonnull align 8 dereferenceable(8) %"class.std::__1::basic_ostream"* @_ZNSt3__113basic_ostreamIcNS_11char_traitsIcEEElsEi(%"class.std::__1::basic_ostream"* noundef nonnull align 8 dereferenceable(8) %12, i32 noundef %13), !dbg !3701
  %15 = call noundef nonnull align 8 dereferenceable(8) %"class.std::__1::basic_ostream"* @_ZNSt3__1lsINS_11char_traitsIcEEEERNS_13basic_ostreamIcT_EES6_PKc(%"class.std::__1::basic_ostream"* noundef nonnull align 8 dereferenceable(8) %14, i8* noundef getelementptr inbounds ([15 x i8], [15 x i8]* @.str.18, i64 0, i64 0)), !dbg !3702
  %16 = load i32, i32* %8, align 4, !dbg !3703, !tbaa !3272
  %17 = call noundef nonnull align 8 dereferenceable(8) %"class.std::__1::basic_ostream"* @_ZNSt3__113basic_ostreamIcNS_11char_traitsIcEEElsEi(%"class.std::__1::basic_ostream"* noundef nonnull align 8 dereferenceable(8) %15, i32 noundef %16), !dbg !3704
  %18 = call noundef nonnull align 8 dereferenceable(8) %"class.std::__1::basic_ostream"* @_ZNSt3__1lsINS_11char_traitsIcEEEERNS_13basic_ostreamIcT_EES6_PKc(%"class.std::__1::basic_ostream"* noundef nonnull align 8 dereferenceable(8) %17, i8* noundef getelementptr inbounds ([2 x i8], [2 x i8]* @.str.9, i64 0, i64 0)), !dbg !3705
  ret i32 -28, !dbg !3706
}

; Function Attrs: mustprogress ssp uwtable
define hidden i32 @halide_error_buffer_extents_too_large(i8* noundef %0, i8* noundef %1, i64 noundef %2, i64 noundef %3) #0 !dbg !3707 {
  %5 = alloca i8*, align 8
  %6 = alloca i8*, align 8
  %7 = alloca i64, align 8
  %8 = alloca i64, align 8
  store i8* %0, i8** %5, align 8, !tbaa !3266
  call void @llvm.dbg.declare(metadata i8** %5, metadata !3711, metadata !DIExpression()), !dbg !3715
  store i8* %1, i8** %6, align 8, !tbaa !3266
  call void @llvm.dbg.declare(metadata i8** %6, metadata !3712, metadata !DIExpression()), !dbg !3716
  store i64 %2, i64* %7, align 8, !tbaa !3670
  call void @llvm.dbg.declare(metadata i64* %7, metadata !3713, metadata !DIExpression()), !dbg !3717
  store i64 %3, i64* %8, align 8, !tbaa !3670
  call void @llvm.dbg.declare(metadata i64* %8, metadata !3714, metadata !DIExpression()), !dbg !3718
  %9 = call noundef nonnull align 8 dereferenceable(8) %"class.std::__1::basic_ostream"* @_ZNSt3__1lsINS_11char_traitsIcEEEERNS_13basic_ostreamIcT_EES6_PKc(%"class.std::__1::basic_ostream"* noundef nonnull align 8 dereferenceable(8) @_ZNSt3__14cerrE, i8* noundef getelementptr inbounds ([31 x i8], [31 x i8]* @.str.19, i64 0, i64 0)), !dbg !3719
  %10 = load i8*, i8** %6, align 8, !dbg !3720, !tbaa !3266
  %11 = call noundef nonnull align 8 dereferenceable(8) %"class.std::__1::basic_ostream"* @_ZNSt3__1lsINS_11char_traitsIcEEEERNS_13basic_ostreamIcT_EES6_PKc(%"class.std::__1::basic_ostream"* noundef nonnull align 8 dereferenceable(8) %9, i8* noundef %10), !dbg !3721
  %12 = call noundef nonnull align 8 dereferenceable(8) %"class.std::__1::basic_ostream"* @_ZNSt3__1lsINS_11char_traitsIcEEEERNS_13basic_ostreamIcT_EES6_PKc(%"class.std::__1::basic_ostream"* noundef nonnull align 8 dereferenceable(8) %11, i8* noundef getelementptr inbounds ([5 x i8], [5 x i8]* @.str.14, i64 0, i64 0)), !dbg !3722
  %13 = load i64, i64* %7, align 8, !dbg !3723, !tbaa !3670
  %14 = call noundef nonnull align 8 dereferenceable(8) %"class.std::__1::basic_ostream"* @_ZNSt3__113basic_ostreamIcNS_11char_traitsIcEEElsEx(%"class.std::__1::basic_ostream"* noundef nonnull align 8 dereferenceable(8) %12, i64 noundef %13), !dbg !3724
  %15 = call noundef nonnull align 8 dereferenceable(8) %"class.std::__1::basic_ostream"* @_ZNSt3__1lsINS_11char_traitsIcEEEERNS_13basic_ostreamIcT_EES6_PKc(%"class.std::__1::basic_ostream"* noundef nonnull align 8 dereferenceable(8) %14, i8* noundef getelementptr inbounds ([37 x i8], [37 x i8]* @.str.15, i64 0, i64 0)), !dbg !3725
  %16 = load i64, i64* %8, align 8, !dbg !3726, !tbaa !3670
  %17 = call noundef nonnull align 8 dereferenceable(8) %"class.std::__1::basic_ostream"* @_ZNSt3__113basic_ostreamIcNS_11char_traitsIcEEElsEx(%"class.std::__1::basic_ostream"* noundef nonnull align 8 dereferenceable(8) %15, i64 noundef %16), !dbg !3727
  ret i32 -6, !dbg !3728
}

declare noundef nonnull align 8 dereferenceable(8) %"class.std::__1::basic_ostream"* @_ZNSt3__113basic_ostreamIcNS_11char_traitsIcEEElsEx(%"class.std::__1::basic_ostream"* noundef nonnull align 8 dereferenceable(8), i64 noundef) #4

; Function Attrs: mustprogress ssp uwtable
define hidden i32 @halide_error_bad_dimensions(i8* noundef %0, i8* noundef %1, i32 noundef %2, i32 noundef %3) #0 !dbg !3729 {
  %5 = alloca i8*, align 8
  %6 = alloca i8*, align 8
  %7 = alloca i32, align 4
  %8 = alloca i32, align 4
  store i8* %0, i8** %5, align 8, !tbaa !3266
  call void @llvm.dbg.declare(metadata i8** %5, metadata !3733, metadata !DIExpression()), !dbg !3737
  store i8* %1, i8** %6, align 8, !tbaa !3266
  call void @llvm.dbg.declare(metadata i8** %6, metadata !3734, metadata !DIExpression()), !dbg !3738
  store i32 %2, i32* %7, align 4, !tbaa !3272
  call void @llvm.dbg.declare(metadata i32* %7, metadata !3735, metadata !DIExpression()), !dbg !3739
  store i32 %3, i32* %8, align 4, !tbaa !3272
  call void @llvm.dbg.declare(metadata i32* %8, metadata !3736, metadata !DIExpression()), !dbg !3740
  %9 = load i8*, i8** %6, align 8, !dbg !3741, !tbaa !3266
  %10 = call noundef nonnull align 8 dereferenceable(8) %"class.std::__1::basic_ostream"* @_ZNSt3__1lsINS_11char_traitsIcEEEERNS_13basic_ostreamIcT_EES6_PKc(%"class.std::__1::basic_ostream"* noundef nonnull align 8 dereferenceable(8) @_ZNSt3__14cerrE, i8* noundef %9), !dbg !3742
  %11 = call noundef nonnull align 8 dereferenceable(8) %"class.std::__1::basic_ostream"* @_ZNSt3__1lsINS_11char_traitsIcEEEERNS_13basic_ostreamIcT_EES6_PKc(%"class.std::__1::basic_ostream"* noundef nonnull align 8 dereferenceable(8) %10, i8* noundef getelementptr inbounds ([31 x i8], [31 x i8]* @.str.20, i64 0, i64 0)), !dbg !3743
  %12 = load i32, i32* %8, align 4, !dbg !3744, !tbaa !3272
  %13 = call noundef nonnull align 8 dereferenceable(8) %"class.std::__1::basic_ostream"* @_ZNSt3__113basic_ostreamIcNS_11char_traitsIcEEElsEi(%"class.std::__1::basic_ostream"* noundef nonnull align 8 dereferenceable(8) %11, i32 noundef %12), !dbg !3745
  %14 = call noundef nonnull align 8 dereferenceable(8) %"class.std::__1::basic_ostream"* @_ZNSt3__1lsINS_11char_traitsIcEEEERNS_13basic_ostreamIcT_EES6_PKc(%"class.std::__1::basic_ostream"* noundef nonnull align 8 dereferenceable(8) %13, i8* noundef getelementptr inbounds ([43 x i8], [43 x i8]* @.str.21, i64 0, i64 0)), !dbg !3746
  %15 = load i32, i32* %7, align 4, !dbg !3747, !tbaa !3272
  %16 = call noundef nonnull align 8 dereferenceable(8) %"class.std::__1::basic_ostream"* @_ZNSt3__113basic_ostreamIcNS_11char_traitsIcEEElsEi(%"class.std::__1::basic_ostream"* noundef nonnull align 8 dereferenceable(8) %14, i32 noundef %15), !dbg !3748
  %17 = call noundef nonnull align 8 dereferenceable(8) %"class.std::__1::basic_ostream"* @_ZNSt3__1lsINS_11char_traitsIcEEEERNS_13basic_ostreamIcT_EES6_PKc(%"class.std::__1::basic_ostream"* noundef nonnull align 8 dereferenceable(8) %16, i8* noundef getelementptr inbounds ([12 x i8], [12 x i8]* @.str.22, i64 0, i64 0)), !dbg !3749
  ret i32 -43, !dbg !3750
}

; Function Attrs: mustprogress ssp uwtable
define hidden i32 @halide_error_access_out_of_bounds(i8* noundef %0, i8* noundef %1, i32 noundef %2, i32 noundef %3, i32 noundef %4, i32 noundef %5, i32 noundef %6) #0 !dbg !3751 {
  %8 = alloca i8*, align 8
  %9 = alloca i8*, align 8
  %10 = alloca i32, align 4
  %11 = alloca i32, align 4
  %12 = alloca i32, align 4
  %13 = alloca i32, align 4
  %14 = alloca i32, align 4
  store i8* %0, i8** %8, align 8, !tbaa !3266
  call void @llvm.dbg.declare(metadata i8** %8, metadata !3755, metadata !DIExpression()), !dbg !3762
  store i8* %1, i8** %9, align 8, !tbaa !3266
  call void @llvm.dbg.declare(metadata i8** %9, metadata !3756, metadata !DIExpression()), !dbg !3763
  store i32 %2, i32* %10, align 4, !tbaa !3272
  call void @llvm.dbg.declare(metadata i32* %10, metadata !3757, metadata !DIExpression()), !dbg !3764
  store i32 %3, i32* %11, align 4, !tbaa !3272
  call void @llvm.dbg.declare(metadata i32* %11, metadata !3758, metadata !DIExpression()), !dbg !3765
  store i32 %4, i32* %12, align 4, !tbaa !3272
  call void @llvm.dbg.declare(metadata i32* %12, metadata !3759, metadata !DIExpression()), !dbg !3766
  store i32 %5, i32* %13, align 4, !tbaa !3272
  call void @llvm.dbg.declare(metadata i32* %13, metadata !3760, metadata !DIExpression()), !dbg !3767
  store i32 %6, i32* %14, align 4, !tbaa !3272
  call void @llvm.dbg.declare(metadata i32* %14, metadata !3761, metadata !DIExpression()), !dbg !3768
  %15 = load i32, i32* %11, align 4, !dbg !3769, !tbaa !3272
  %16 = load i32, i32* %13, align 4, !dbg !3771, !tbaa !3272
  %17 = icmp slt i32 %15, %16, !dbg !3772
  br i1 %17, label %18, label %30, !dbg !3773

18:                                               ; preds = %7
  %19 = load i8*, i8** %9, align 8, !dbg !3774, !tbaa !3266
  %20 = call noundef nonnull align 8 dereferenceable(8) %"class.std::__1::basic_ostream"* @_ZNSt3__1lsINS_11char_traitsIcEEEERNS_13basic_ostreamIcT_EES6_PKc(%"class.std::__1::basic_ostream"* noundef nonnull align 8 dereferenceable(8) @_ZNSt3__14cerrE, i8* noundef %19), !dbg !3776
  %21 = call noundef nonnull align 8 dereferenceable(8) %"class.std::__1::basic_ostream"* @_ZNSt3__1lsINS_11char_traitsIcEEEERNS_13basic_ostreamIcT_EES6_PKc(%"class.std::__1::basic_ostream"* noundef nonnull align 8 dereferenceable(8) %20, i8* noundef getelementptr inbounds ([17 x i8], [17 x i8]* @.str.23, i64 0, i64 0)), !dbg !3777
  %22 = load i32, i32* %11, align 4, !dbg !3778, !tbaa !3272
  %23 = call noundef nonnull align 8 dereferenceable(8) %"class.std::__1::basic_ostream"* @_ZNSt3__113basic_ostreamIcNS_11char_traitsIcEEElsEi(%"class.std::__1::basic_ostream"* noundef nonnull align 8 dereferenceable(8) %21, i32 noundef %22), !dbg !3779
  %24 = call noundef nonnull align 8 dereferenceable(8) %"class.std::__1::basic_ostream"* @_ZNSt3__1lsINS_11char_traitsIcEEEERNS_13basic_ostreamIcT_EES6_PKc(%"class.std::__1::basic_ostream"* noundef nonnull align 8 dereferenceable(8) %23, i8* noundef getelementptr inbounds ([28 x i8], [28 x i8]* @.str.24, i64 0, i64 0)), !dbg !3780
  %25 = load i32, i32* %13, align 4, !dbg !3781, !tbaa !3272
  %26 = call noundef nonnull align 8 dereferenceable(8) %"class.std::__1::basic_ostream"* @_ZNSt3__113basic_ostreamIcNS_11char_traitsIcEEElsEi(%"class.std::__1::basic_ostream"* noundef nonnull align 8 dereferenceable(8) %24, i32 noundef %25), !dbg !3782
  %27 = call noundef nonnull align 8 dereferenceable(8) %"class.std::__1::basic_ostream"* @_ZNSt3__1lsINS_11char_traitsIcEEEERNS_13basic_ostreamIcT_EES6_PKc(%"class.std::__1::basic_ostream"* noundef nonnull align 8 dereferenceable(8) %26, i8* noundef getelementptr inbounds ([16 x i8], [16 x i8]* @.str.25, i64 0, i64 0)), !dbg !3783
  %28 = load i32, i32* %10, align 4, !dbg !3784, !tbaa !3272
  %29 = call noundef nonnull align 8 dereferenceable(8) %"class.std::__1::basic_ostream"* @_ZNSt3__113basic_ostreamIcNS_11char_traitsIcEEElsEi(%"class.std::__1::basic_ostream"* noundef nonnull align 8 dereferenceable(8) %27, i32 noundef %28), !dbg !3785
  br label %47, !dbg !3786

30:                                               ; preds = %7
  %31 = load i32, i32* %12, align 4, !dbg !3787, !tbaa !3272
  %32 = load i32, i32* %14, align 4, !dbg !3789, !tbaa !3272
  %33 = icmp sgt i32 %31, %32, !dbg !3790
  br i1 %33, label %34, label %46, !dbg !3791

34:                                               ; preds = %30
  %35 = load i8*, i8** %9, align 8, !dbg !3792, !tbaa !3266
  %36 = call noundef nonnull align 8 dereferenceable(8) %"class.std::__1::basic_ostream"* @_ZNSt3__1lsINS_11char_traitsIcEEEERNS_13basic_ostreamIcT_EES6_PKc(%"class.std::__1::basic_ostream"* noundef nonnull align 8 dereferenceable(8) @_ZNSt3__14cerrE, i8* noundef %35), !dbg !3794
  %37 = call noundef nonnull align 8 dereferenceable(8) %"class.std::__1::basic_ostream"* @_ZNSt3__1lsINS_11char_traitsIcEEEERNS_13basic_ostreamIcT_EES6_PKc(%"class.std::__1::basic_ostream"* noundef nonnull align 8 dereferenceable(8) %36, i8* noundef getelementptr inbounds ([17 x i8], [17 x i8]* @.str.23, i64 0, i64 0)), !dbg !3795
  %38 = load i32, i32* %12, align 4, !dbg !3796, !tbaa !3272
  %39 = call noundef nonnull align 8 dereferenceable(8) %"class.std::__1::basic_ostream"* @_ZNSt3__113basic_ostreamIcNS_11char_traitsIcEEElsEi(%"class.std::__1::basic_ostream"* noundef nonnull align 8 dereferenceable(8) %37, i32 noundef %38), !dbg !3797
  %40 = call noundef nonnull align 8 dereferenceable(8) %"class.std::__1::basic_ostream"* @_ZNSt3__1lsINS_11char_traitsIcEEEERNS_13basic_ostreamIcT_EES6_PKc(%"class.std::__1::basic_ostream"* noundef nonnull align 8 dereferenceable(8) %39, i8* noundef getelementptr inbounds ([28 x i8], [28 x i8]* @.str.26, i64 0, i64 0)), !dbg !3798
  %41 = load i32, i32* %14, align 4, !dbg !3799, !tbaa !3272
  %42 = call noundef nonnull align 8 dereferenceable(8) %"class.std::__1::basic_ostream"* @_ZNSt3__113basic_ostreamIcNS_11char_traitsIcEEElsEi(%"class.std::__1::basic_ostream"* noundef nonnull align 8 dereferenceable(8) %40, i32 noundef %41), !dbg !3800
  %43 = call noundef nonnull align 8 dereferenceable(8) %"class.std::__1::basic_ostream"* @_ZNSt3__1lsINS_11char_traitsIcEEEERNS_13basic_ostreamIcT_EES6_PKc(%"class.std::__1::basic_ostream"* noundef nonnull align 8 dereferenceable(8) %42, i8* noundef getelementptr inbounds ([16 x i8], [16 x i8]* @.str.25, i64 0, i64 0)), !dbg !3801
  %44 = load i32, i32* %10, align 4, !dbg !3802, !tbaa !3272
  %45 = call noundef nonnull align 8 dereferenceable(8) %"class.std::__1::basic_ostream"* @_ZNSt3__113basic_ostreamIcNS_11char_traitsIcEEElsEi(%"class.std::__1::basic_ostream"* noundef nonnull align 8 dereferenceable(8) %43, i32 noundef %44), !dbg !3803
  br label %46, !dbg !3804

46:                                               ; preds = %34, %30
  br label %47

47:                                               ; preds = %46, %18
  ret i32 -4, !dbg !3805
}

; Function Attrs: mustprogress ssp uwtable
define hidden i32 @halide_default_do_task(i8* noundef %0, i32 (i8*, i32, i8*)* noundef %1, i32 noundef %2, i8* noundef %3) #0 !dbg !3806 {
  %5 = alloca i8*, align 8
  %6 = alloca i32 (i8*, i32, i8*)*, align 8
  %7 = alloca i32, align 4
  %8 = alloca i8*, align 8
  store i8* %0, i8** %5, align 8, !tbaa !3266
  call void @llvm.dbg.declare(metadata i8** %5, metadata !3808, metadata !DIExpression()), !dbg !3812
  store i32 (i8*, i32, i8*)* %1, i32 (i8*, i32, i8*)** %6, align 8, !tbaa !3266
  call void @llvm.dbg.declare(metadata i32 (i8*, i32, i8*)** %6, metadata !3809, metadata !DIExpression()), !dbg !3813
  store i32 %2, i32* %7, align 4, !tbaa !3272
  call void @llvm.dbg.declare(metadata i32* %7, metadata !3810, metadata !DIExpression()), !dbg !3814
  store i8* %3, i8** %8, align 8, !tbaa !3266
  call void @llvm.dbg.declare(metadata i8** %8, metadata !3811, metadata !DIExpression()), !dbg !3815
  %9 = load i32 (i8*, i32, i8*)*, i32 (i8*, i32, i8*)** %6, align 8, !dbg !3816, !tbaa !3266
  %10 = load i8*, i8** %5, align 8, !dbg !3817, !tbaa !3266
  %11 = load i32, i32* %7, align 4, !dbg !3818, !tbaa !3272
  %12 = load i8*, i8** %8, align 8, !dbg !3819, !tbaa !3266
  %13 = call noundef i32 %9(i8* noundef %10, i32 noundef %11, i8* noundef %12), !dbg !3816
  ret i32 %13, !dbg !3820
}

; Function Attrs: mustprogress ssp uwtable
define hidden i32 @halide_error_explicit_bounds_too_small(i8* noundef %0, i8* noundef %1, i8* noundef %2, i32 noundef %3, i32 noundef %4, i32 noundef %5, i32 noundef %6) #0 !dbg !3821 {
  %8 = alloca i8*, align 8
  %9 = alloca i8*, align 8
  %10 = alloca i8*, align 8
  %11 = alloca i32, align 4
  %12 = alloca i32, align 4
  %13 = alloca i32, align 4
  %14 = alloca i32, align 4
  store i8* %0, i8** %8, align 8, !tbaa !3266
  call void @llvm.dbg.declare(metadata i8** %8, metadata !3825, metadata !DIExpression()), !dbg !3832
  store i8* %1, i8** %9, align 8, !tbaa !3266
  call void @llvm.dbg.declare(metadata i8** %9, metadata !3826, metadata !DIExpression()), !dbg !3833
  store i8* %2, i8** %10, align 8, !tbaa !3266
  call void @llvm.dbg.declare(metadata i8** %10, metadata !3827, metadata !DIExpression()), !dbg !3834
  store i32 %3, i32* %11, align 4, !tbaa !3272
  call void @llvm.dbg.declare(metadata i32* %11, metadata !3828, metadata !DIExpression()), !dbg !3835
  store i32 %4, i32* %12, align 4, !tbaa !3272
  call void @llvm.dbg.declare(metadata i32* %12, metadata !3829, metadata !DIExpression()), !dbg !3836
  store i32 %5, i32* %13, align 4, !tbaa !3272
  call void @llvm.dbg.declare(metadata i32* %13, metadata !3830, metadata !DIExpression()), !dbg !3837
  store i32 %6, i32* %14, align 4, !tbaa !3272
  call void @llvm.dbg.declare(metadata i32* %14, metadata !3831, metadata !DIExpression()), !dbg !3838
  %15 = call noundef nonnull align 8 dereferenceable(8) %"class.std::__1::basic_ostream"* @_ZNSt3__1lsINS_11char_traitsIcEEEERNS_13basic_ostreamIcT_EES6_PKc(%"class.std::__1::basic_ostream"* noundef nonnull align 8 dereferenceable(8) @_ZNSt3__14cerrE, i8* noundef getelementptr inbounds ([18 x i8], [18 x i8]* @.str.27, i64 0, i64 0)), !dbg !3839
  %16 = load i8*, i8** %10, align 8, !dbg !3840, !tbaa !3266
  %17 = call noundef nonnull align 8 dereferenceable(8) %"class.std::__1::basic_ostream"* @_ZNSt3__1lsINS_11char_traitsIcEEEERNS_13basic_ostreamIcT_EES6_PKc(%"class.std::__1::basic_ostream"* noundef nonnull align 8 dereferenceable(8) %15, i8* noundef %16), !dbg !3841
  %18 = call noundef nonnull align 8 dereferenceable(8) %"class.std::__1::basic_ostream"* @_ZNSt3__1lsINS_11char_traitsIcEEEERNS_13basic_ostreamIcT_EES6_PKc(%"class.std::__1::basic_ostream"* noundef nonnull align 8 dereferenceable(8) %17, i8* noundef getelementptr inbounds ([5 x i8], [5 x i8]* @.str.28, i64 0, i64 0)), !dbg !3842
  %19 = load i8*, i8** %9, align 8, !dbg !3843, !tbaa !3266
  %20 = call noundef nonnull align 8 dereferenceable(8) %"class.std::__1::basic_ostream"* @_ZNSt3__1lsINS_11char_traitsIcEEEERNS_13basic_ostreamIcT_EES6_PKc(%"class.std::__1::basic_ostream"* noundef nonnull align 8 dereferenceable(8) %18, i8* noundef %19), !dbg !3844
  %21 = call noundef nonnull align 8 dereferenceable(8) %"class.std::__1::basic_ostream"* @_ZNSt3__1lsINS_11char_traitsIcEEEERNS_13basic_ostreamIcT_EES6_PKc(%"class.std::__1::basic_ostream"* noundef nonnull align 8 dereferenceable(8) %20, i8* noundef getelementptr inbounds ([8 x i8], [8 x i8]* @.str.29, i64 0, i64 0)), !dbg !3845
  %22 = load i32, i32* %11, align 4, !dbg !3846, !tbaa !3272
  %23 = call noundef nonnull align 8 dereferenceable(8) %"class.std::__1::basic_ostream"* @_ZNSt3__113basic_ostreamIcNS_11char_traitsIcEEElsEi(%"class.std::__1::basic_ostream"* noundef nonnull align 8 dereferenceable(8) %21, i32 noundef %22), !dbg !3847
  %24 = call noundef nonnull align 8 dereferenceable(8) %"class.std::__1::basic_ostream"* @_ZNSt3__1lsINS_11char_traitsIcEEEERNS_13basic_ostreamIcT_EES6_PKc(%"class.std::__1::basic_ostream"* noundef nonnull align 8 dereferenceable(8) %23, i8* noundef getelementptr inbounds ([5 x i8], [5 x i8]* @.str.30, i64 0, i64 0)), !dbg !3848
  %25 = load i32, i32* %12, align 4, !dbg !3849, !tbaa !3272
  %26 = call noundef nonnull align 8 dereferenceable(8) %"class.std::__1::basic_ostream"* @_ZNSt3__113basic_ostreamIcNS_11char_traitsIcEEElsEi(%"class.std::__1::basic_ostream"* noundef nonnull align 8 dereferenceable(8) %24, i32 noundef %25), !dbg !3850
  %27 = call noundef nonnull align 8 dereferenceable(8) %"class.std::__1::basic_ostream"* @_ZNSt3__1lsINS_11char_traitsIcEEEERNS_13basic_ostreamIcT_EES6_PKc(%"class.std::__1::basic_ostream"* noundef nonnull align 8 dereferenceable(8) %26, i8* noundef getelementptr inbounds ([38 x i8], [38 x i8]* @.str.31, i64 0, i64 0)), !dbg !3851
  %28 = load i32, i32* %13, align 4, !dbg !3852, !tbaa !3272
  %29 = call noundef nonnull align 8 dereferenceable(8) %"class.std::__1::basic_ostream"* @_ZNSt3__113basic_ostreamIcNS_11char_traitsIcEEElsEi(%"class.std::__1::basic_ostream"* noundef nonnull align 8 dereferenceable(8) %27, i32 noundef %28), !dbg !3853
  %30 = call noundef nonnull align 8 dereferenceable(8) %"class.std::__1::basic_ostream"* @_ZNSt3__1lsINS_11char_traitsIcEEEERNS_13basic_ostreamIcT_EES6_PKc(%"class.std::__1::basic_ostream"* noundef nonnull align 8 dereferenceable(8) %29, i8* noundef getelementptr inbounds ([5 x i8], [5 x i8]* @.str.30, i64 0, i64 0)), !dbg !3854
  %31 = load i32, i32* %14, align 4, !dbg !3855, !tbaa !3272
  %32 = call noundef nonnull align 8 dereferenceable(8) %"class.std::__1::basic_ostream"* @_ZNSt3__113basic_ostreamIcNS_11char_traitsIcEEElsEi(%"class.std::__1::basic_ostream"* noundef nonnull align 8 dereferenceable(8) %30, i32 noundef %31), !dbg !3856
  %33 = call noundef nonnull align 8 dereferenceable(8) %"class.std::__1::basic_ostream"* @_ZNSt3__1lsINS_11char_traitsIcEEEERNS_13basic_ostreamIcT_EES6_PKc(%"class.std::__1::basic_ostream"* noundef nonnull align 8 dereferenceable(8) %32, i8* noundef getelementptr inbounds ([2 x i8], [2 x i8]* @.str.9, i64 0, i64 0)), !dbg !3857
  ret i32 -2, !dbg !3858
}

; Function Attrs: mustprogress ssp uwtable
define hidden i32 @halide_dotProduct(%struct.halide_buffer_t* noundef %0, %struct.halide_buffer_t* noundef %1, %struct.halide_buffer_t* noundef %2) #0 !dbg !3859 {
  %4 = alloca i32, align 4
  %5 = alloca %struct.halide_buffer_t*, align 8
  %6 = alloca %struct.halide_buffer_t*, align 8
  %7 = alloca %struct.halide_buffer_t*, align 8
  %8 = alloca i8*, align 8
  %9 = alloca i64, align 8
  %10 = alloca i64, align 8
  %11 = alloca i8, align 1
  %12 = alloca i32, align 4
  %13 = alloca i32, align 4
  %14 = alloca i64, align 8
  %15 = alloca i64, align 8
  %16 = alloca i8, align 1
  %17 = alloca i32, align 4
  %18 = alloca i64, align 8
  %19 = alloca i64, align 8
  %20 = alloca i8, align 1
  %21 = alloca i32, align 4
  %22 = alloca i8*, align 8
  %23 = alloca i8*, align 8
  %24 = alloca i32, align 4
  %25 = alloca i8, align 1
  %26 = alloca i32, align 4
  %27 = alloca i32, align 4
  %28 = alloca i32, align 4
  %29 = alloca i32, align 4
  %30 = alloca i8*, align 8
  %31 = alloca i8*, align 8
  %32 = alloca i32, align 4
  %33 = alloca i8, align 1
  %34 = alloca i32, align 4
  %35 = alloca i32, align 4
  %36 = alloca i32, align 4
  %37 = alloca i32, align 4
  %38 = alloca i8*, align 8
  %39 = alloca i8*, align 8
  %40 = alloca i32, align 4
  %41 = alloca i8, align 1
  %42 = alloca i32, align 4
  %43 = alloca i32, align 4
  %44 = alloca i32, align 4
  %45 = alloca i32, align 4
  %46 = alloca i8, align 1
  %47 = alloca %struct.halide_dimension_t*, align 8
  %48 = alloca i8*, align 8
  %49 = alloca i64, align 8
  %50 = alloca %struct.halide_device_interface_t*, align 8
  %51 = alloca [1 x %struct.halide_dimension_t], align 16
  %52 = alloca %struct.halide_dimension_t*, align 8
  %53 = alloca %struct.halide_buffer_t*, align 8
  %54 = alloca i8, align 1
  %55 = alloca %struct.halide_dimension_t*, align 8
  %56 = alloca i8*, align 8
  %57 = alloca i64, align 8
  %58 = alloca %struct.halide_device_interface_t*, align 8
  %59 = alloca [1 x %struct.halide_dimension_t], align 16
  %60 = alloca %struct.halide_dimension_t*, align 8
  %61 = alloca %struct.halide_buffer_t*, align 8
  %62 = alloca i8, align 1
  %63 = alloca %struct.halide_dimension_t*, align 8
  %64 = alloca i8*, align 8
  %65 = alloca i64, align 8
  %66 = alloca %struct.halide_device_interface_t*, align 8
  %67 = alloca [1 x %struct.halide_dimension_t], align 16
  %68 = alloca %struct.halide_dimension_t*, align 8
  %69 = alloca %struct.halide_buffer_t*, align 8
  %70 = alloca i8, align 1
  %71 = alloca i8, align 1
  %72 = alloca i8, align 1
  %73 = alloca i8, align 1
  %74 = alloca i8, align 1
  %75 = alloca i8, align 1
  %76 = alloca i32, align 4
  %77 = alloca i8, align 1
  %78 = alloca i32, align 4
  %79 = alloca i32, align 4
  %80 = alloca i8, align 1
  %81 = alloca i32, align 4
  %82 = alloca i32, align 4
  %83 = alloca i8, align 1
  %84 = alloca i32, align 4
  %85 = alloca i32, align 4
  %86 = alloca i8, align 1
  %87 = alloca i32, align 4
  %88 = alloca i32, align 4
  %89 = alloca i8, align 1
  %90 = alloca i32, align 4
  %91 = alloca i32, align 4
  %92 = alloca i8, align 1
  %93 = alloca i32, align 4
  %94 = alloca i8, align 1
  %95 = alloca i32, align 4
  %96 = alloca i8, align 1
  %97 = alloca i8, align 1
  %98 = alloca i32, align 4
  %99 = alloca i32, align 4
  %100 = alloca i32, align 4
  %101 = alloca i8, align 1
  %102 = alloca i32, align 4
  %103 = alloca i8, align 1
  %104 = alloca i32, align 4
  %105 = alloca i8, align 1
  %106 = alloca i32, align 4
  %107 = alloca i32, align 4
  %108 = alloca i8, align 1
  %109 = alloca i8, align 1
  %110 = alloca i32, align 4
  %111 = alloca i32, align 4
  %112 = alloca i32, align 4
  %113 = alloca i32, align 4
  %114 = alloca i32, align 4
  %115 = alloca i8, align 1
  %116 = alloca i32, align 4
  %117 = alloca i8, align 1
  %118 = alloca i32, align 4
  %119 = alloca i8, align 1
  %120 = alloca i32, align 4
  %121 = alloca i8, align 1
  %122 = alloca i32, align 4
  %123 = alloca i64, align 8
  %124 = alloca i64, align 8
  %125 = alloca i8, align 1
  %126 = alloca i64, align 8
  %127 = alloca i64, align 8
  %128 = alloca i32, align 4
  %129 = alloca i64, align 8
  %130 = alloca i64, align 8
  %131 = alloca i8, align 1
  %132 = alloca i64, align 8
  %133 = alloca i64, align 8
  %134 = alloca i32, align 4
  %135 = alloca i64, align 8
  %136 = alloca i64, align 8
  %137 = alloca i8, align 1
  %138 = alloca i64, align 8
  %139 = alloca i64, align 8
  %140 = alloca i32, align 4
  %141 = alloca i8, align 1
  %142 = alloca i32, align 4
  %143 = alloca i8, align 1
  %144 = alloca i32, align 4
  %145 = alloca i8, align 1
  %146 = alloca i32, align 4
  %147 = alloca i8*, align 8
  %148 = alloca i8, align 1
  %149 = alloca i32, align 4
  %150 = alloca i8*, align 8
  %151 = alloca i8, align 1
  %152 = alloca i32, align 4
  %153 = alloca i8*, align 8
  %154 = alloca i8, align 1
  %155 = alloca i32, align 4
  %156 = alloca i8, align 1
  %157 = alloca i32, align 4
  %158 = alloca i8, align 1
  %159 = alloca i8, align 1
  %160 = alloca i32, align 4
  %161 = alloca i32, align 4
  %162 = alloca i32, align 4
  %163 = alloca [1 x float], align 4
  %164 = alloca float, align 4
  %165 = alloca i32, align 4
  %166 = alloca i32, align 4
  %167 = alloca float, align 4
  %168 = alloca float, align 4
  %169 = alloca i32, align 4
  %170 = alloca float, align 4
  %171 = alloca float, align 4
  %172 = alloca float, align 4
  %173 = alloca float, align 4
  store %struct.halide_buffer_t* %0, %struct.halide_buffer_t** %5, align 8, !tbaa !3266
  call void @llvm.dbg.declare(metadata %struct.halide_buffer_t** %5, metadata !3863, metadata !DIExpression()), !dbg !4101
  store %struct.halide_buffer_t* %1, %struct.halide_buffer_t** %6, align 8, !tbaa !3266
  call void @llvm.dbg.declare(metadata %struct.halide_buffer_t** %6, metadata !3864, metadata !DIExpression()), !dbg !4102
  store %struct.halide_buffer_t* %2, %struct.halide_buffer_t** %7, align 8, !tbaa !3266
  call void @llvm.dbg.declare(metadata %struct.halide_buffer_t** %7, metadata !3865, metadata !DIExpression()), !dbg !4103
  %174 = bitcast i8** %8 to i8*, !dbg !4104
  call void @llvm.lifetime.start.p0i8(i64 8, i8* %174) #9, !dbg !4104
  call void @llvm.dbg.declare(metadata i8** %8, metadata !3866, metadata !DIExpression()), !dbg !4105
  store i8* null, i8** %8, align 8, !dbg !4105, !tbaa !3266
  call void @_Z19halide_maybe_unusedIPvEvRKT_(i8** noundef nonnull align 8 dereferenceable(8) %8), !dbg !4106
  %175 = bitcast i64* %9 to i8*, !dbg !4107
  call void @llvm.lifetime.start.p0i8(i64 8, i8* %175) #9, !dbg !4107
  call void @llvm.dbg.declare(metadata i64* %9, metadata !3868, metadata !DIExpression()), !dbg !4108
  %176 = load %struct.halide_buffer_t*, %struct.halide_buffer_t** %6, align 8, !dbg !4109, !tbaa !3266
  %177 = ptrtoint %struct.halide_buffer_t* %176 to i64, !dbg !4110
  store i64 %177, i64* %9, align 8, !dbg !4108, !tbaa !3670
  %178 = bitcast i64* %10 to i8*, !dbg !4111
  call void @llvm.lifetime.start.p0i8(i64 8, i8* %178) #9, !dbg !4111
  call void @llvm.dbg.declare(metadata i64* %10, metadata !3869, metadata !DIExpression()), !dbg !4112
  store i64 0, i64* %10, align 8, !dbg !4112, !tbaa !3670
  call void @llvm.lifetime.start.p0i8(i64 1, i8* %11) #9, !dbg !4113
  call void @llvm.dbg.declare(metadata i8* %11, metadata !3870, metadata !DIExpression()), !dbg !4114
  %179 = load i64, i64* %9, align 8, !dbg !4115, !tbaa !3670
  %180 = load i64, i64* %10, align 8, !dbg !4116, !tbaa !3670
  %181 = icmp ne i64 %179, %180, !dbg !4117
  %182 = zext i1 %181 to i8, !dbg !4114
  store i8 %182, i8* %11, align 1, !dbg !4114, !tbaa !4118
  %183 = load i8, i8* %11, align 1, !dbg !4120, !tbaa !4118, !range !4121
  %184 = trunc i8 %183 to i1, !dbg !4120
  br i1 %184, label %190, label %185, !dbg !4122

185:                                              ; preds = %3
  %186 = bitcast i32* %12 to i8*, !dbg !4123
  call void @llvm.lifetime.start.p0i8(i64 4, i8* %186) #9, !dbg !4123
  call void @llvm.dbg.declare(metadata i32* %12, metadata !3871, metadata !DIExpression()), !dbg !4124
  %187 = call i32 @halide_error_buffer_argument_is_null(i8* noundef null, i8* noundef getelementptr inbounds ([8 x i8], [8 x i8]* @.str.32, i64 0, i64 0)), !dbg !4125
  store i32 %187, i32* %12, align 4, !dbg !4124, !tbaa !3272
  %188 = load i32, i32* %12, align 4, !dbg !4126, !tbaa !3272
  store i32 %188, i32* %4, align 4, !dbg !4127
  store i32 1, i32* %13, align 4
  %189 = bitcast i32* %12 to i8*, !dbg !4128
  call void @llvm.lifetime.end.p0i8(i64 4, i8* %189) #9, !dbg !4128
  br label %1002

190:                                              ; preds = %3
  %191 = bitcast i64* %14 to i8*, !dbg !4129
  call void @llvm.lifetime.start.p0i8(i64 8, i8* %191) #9, !dbg !4129
  call void @llvm.dbg.declare(metadata i64* %14, metadata !3874, metadata !DIExpression()), !dbg !4130
  %192 = load %struct.halide_buffer_t*, %struct.halide_buffer_t** %5, align 8, !dbg !4131, !tbaa !3266
  %193 = ptrtoint %struct.halide_buffer_t* %192 to i64, !dbg !4132
  store i64 %193, i64* %14, align 8, !dbg !4130, !tbaa !3670
  %194 = bitcast i64* %15 to i8*, !dbg !4133
  call void @llvm.lifetime.start.p0i8(i64 8, i8* %194) #9, !dbg !4133
  call void @llvm.dbg.declare(metadata i64* %15, metadata !3875, metadata !DIExpression()), !dbg !4134
  store i64 0, i64* %15, align 8, !dbg !4134, !tbaa !3670
  call void @llvm.lifetime.start.p0i8(i64 1, i8* %16) #9, !dbg !4135
  call void @llvm.dbg.declare(metadata i8* %16, metadata !3876, metadata !DIExpression()), !dbg !4136
  %195 = load i64, i64* %14, align 8, !dbg !4137, !tbaa !3670
  %196 = load i64, i64* %15, align 8, !dbg !4138, !tbaa !3670
  %197 = icmp ne i64 %195, %196, !dbg !4139
  %198 = zext i1 %197 to i8, !dbg !4136
  store i8 %198, i8* %16, align 1, !dbg !4136, !tbaa !4118
  %199 = load i8, i8* %16, align 1, !dbg !4140, !tbaa !4118, !range !4121
  %200 = trunc i8 %199 to i1, !dbg !4140
  br i1 %200, label %206, label %201, !dbg !4141

201:                                              ; preds = %190
  %202 = bitcast i32* %17 to i8*, !dbg !4142
  call void @llvm.lifetime.start.p0i8(i64 4, i8* %202) #9, !dbg !4142
  call void @llvm.dbg.declare(metadata i32* %17, metadata !3877, metadata !DIExpression()), !dbg !4143
  %203 = call i32 @halide_error_buffer_argument_is_null(i8* noundef null, i8* noundef getelementptr inbounds ([8 x i8], [8 x i8]* @.str.33, i64 0, i64 0)), !dbg !4144
  store i32 %203, i32* %17, align 4, !dbg !4143, !tbaa !3272
  %204 = load i32, i32* %17, align 4, !dbg !4145, !tbaa !3272
  store i32 %204, i32* %4, align 4, !dbg !4146
  store i32 1, i32* %13, align 4
  %205 = bitcast i32* %17 to i8*, !dbg !4147
  call void @llvm.lifetime.end.p0i8(i64 4, i8* %205) #9, !dbg !4147
  br label %999

206:                                              ; preds = %190
  %207 = bitcast i64* %18 to i8*, !dbg !4148
  call void @llvm.lifetime.start.p0i8(i64 8, i8* %207) #9, !dbg !4148
  call void @llvm.dbg.declare(metadata i64* %18, metadata !3880, metadata !DIExpression()), !dbg !4149
  %208 = load %struct.halide_buffer_t*, %struct.halide_buffer_t** %7, align 8, !dbg !4150, !tbaa !3266
  %209 = ptrtoint %struct.halide_buffer_t* %208 to i64, !dbg !4151
  store i64 %209, i64* %18, align 8, !dbg !4149, !tbaa !3670
  %210 = bitcast i64* %19 to i8*, !dbg !4152
  call void @llvm.lifetime.start.p0i8(i64 8, i8* %210) #9, !dbg !4152
  call void @llvm.dbg.declare(metadata i64* %19, metadata !3881, metadata !DIExpression()), !dbg !4153
  store i64 0, i64* %19, align 8, !dbg !4153, !tbaa !3670
  call void @llvm.lifetime.start.p0i8(i64 1, i8* %20) #9, !dbg !4154
  call void @llvm.dbg.declare(metadata i8* %20, metadata !3882, metadata !DIExpression()), !dbg !4155
  %211 = load i64, i64* %18, align 8, !dbg !4156, !tbaa !3670
  %212 = load i64, i64* %19, align 8, !dbg !4157, !tbaa !3670
  %213 = icmp ne i64 %211, %212, !dbg !4158
  %214 = zext i1 %213 to i8, !dbg !4155
  store i8 %214, i8* %20, align 1, !dbg !4155, !tbaa !4118
  %215 = load i8, i8* %20, align 1, !dbg !4159, !tbaa !4118, !range !4121
  %216 = trunc i8 %215 to i1, !dbg !4159
  br i1 %216, label %222, label %217, !dbg !4160

217:                                              ; preds = %206
  %218 = bitcast i32* %21 to i8*, !dbg !4161
  call void @llvm.lifetime.start.p0i8(i64 4, i8* %218) #9, !dbg !4161
  call void @llvm.dbg.declare(metadata i32* %21, metadata !3883, metadata !DIExpression()), !dbg !4162
  %219 = call i32 @halide_error_buffer_argument_is_null(i8* noundef null, i8* noundef getelementptr inbounds ([7 x i8], [7 x i8]* @.str.34, i64 0, i64 0)), !dbg !4163
  store i32 %219, i32* %21, align 4, !dbg !4162, !tbaa !3272
  %220 = load i32, i32* %21, align 4, !dbg !4164, !tbaa !3272
  store i32 %220, i32* %4, align 4, !dbg !4165
  store i32 1, i32* %13, align 4
  %221 = bitcast i32* %21 to i8*, !dbg !4166
  call void @llvm.lifetime.end.p0i8(i64 4, i8* %221) #9, !dbg !4166
  br label %996

222:                                              ; preds = %206
  %223 = bitcast i8** %22 to i8*, !dbg !4167
  call void @llvm.lifetime.start.p0i8(i64 8, i8* %223) #9, !dbg !4167
  call void @llvm.dbg.declare(metadata i8** %22, metadata !3886, metadata !DIExpression()), !dbg !4168
  %224 = load %struct.halide_buffer_t*, %struct.halide_buffer_t** %7, align 8, !dbg !4169, !tbaa !3266
  %225 = call i8* @_halide_buffer_get_host(%struct.halide_buffer_t* noundef %224), !dbg !4170
  store i8* %225, i8** %22, align 8, !dbg !4168, !tbaa !3266
  %226 = bitcast i8** %23 to i8*, !dbg !4171
  call void @llvm.lifetime.start.p0i8(i64 8, i8* %226) #9, !dbg !4171
  call void @llvm.dbg.declare(metadata i8** %23, metadata !3887, metadata !DIExpression()), !dbg !4172
  %227 = load i8*, i8** %22, align 8, !dbg !4173, !tbaa !3266
  store i8* %227, i8** %23, align 8, !dbg !4172, !tbaa !3266
  call void @_Z19halide_maybe_unusedIPhEvRKT_(i8** noundef nonnull align 8 dereferenceable(8) %23), !dbg !4174
  %228 = bitcast i32* %24 to i8*, !dbg !4175
  call void @llvm.lifetime.start.p0i8(i64 4, i8* %228) #9, !dbg !4175
  call void @llvm.dbg.declare(metadata i32* %24, metadata !3888, metadata !DIExpression()), !dbg !4176
  %229 = load %struct.halide_buffer_t*, %struct.halide_buffer_t** %7, align 8, !dbg !4177, !tbaa !3266
  %230 = call i32 @_halide_buffer_get_type(%struct.halide_buffer_t* noundef %229), !dbg !4178
  store i32 %230, i32* %24, align 4, !dbg !4176, !tbaa !3272
  call void @llvm.lifetime.start.p0i8(i64 1, i8* %25) #9, !dbg !4179
  call void @llvm.dbg.declare(metadata i8* %25, metadata !3889, metadata !DIExpression()), !dbg !4180
  %231 = load %struct.halide_buffer_t*, %struct.halide_buffer_t** %7, align 8, !dbg !4181, !tbaa !3266
  %232 = call zeroext i1 @_halide_buffer_get_device_dirty(%struct.halide_buffer_t* noundef %231), !dbg !4182
  %233 = zext i1 %232 to i8, !dbg !4180
  store i8 %233, i8* %25, align 1, !dbg !4180, !tbaa !4118
  %234 = bitcast i32* %26 to i8*, !dbg !4183
  call void @llvm.lifetime.start.p0i8(i64 4, i8* %234) #9, !dbg !4183
  call void @llvm.dbg.declare(metadata i32* %26, metadata !3890, metadata !DIExpression()), !dbg !4184
  %235 = load %struct.halide_buffer_t*, %struct.halide_buffer_t** %7, align 8, !dbg !4185, !tbaa !3266
  %236 = call i32 @_halide_buffer_get_dimensions(%struct.halide_buffer_t* noundef %235), !dbg !4186
  store i32 %236, i32* %26, align 4, !dbg !4184, !tbaa !3272
  %237 = bitcast i32* %27 to i8*, !dbg !4187
  call void @llvm.lifetime.start.p0i8(i64 4, i8* %237) #9, !dbg !4187
  call void @llvm.dbg.declare(metadata i32* %27, metadata !3891, metadata !DIExpression()), !dbg !4188
  %238 = load %struct.halide_buffer_t*, %struct.halide_buffer_t** %7, align 8, !dbg !4189, !tbaa !3266
  %239 = call i32 @_halide_buffer_get_min(%struct.halide_buffer_t* noundef %238, i32 noundef 0), !dbg !4190
  store i32 %239, i32* %27, align 4, !dbg !4188, !tbaa !3272
  %240 = bitcast i32* %28 to i8*, !dbg !4191
  call void @llvm.lifetime.start.p0i8(i64 4, i8* %240) #9, !dbg !4191
  call void @llvm.dbg.declare(metadata i32* %28, metadata !3892, metadata !DIExpression()), !dbg !4192
  %241 = load %struct.halide_buffer_t*, %struct.halide_buffer_t** %7, align 8, !dbg !4193, !tbaa !3266
  %242 = call i32 @_halide_buffer_get_extent(%struct.halide_buffer_t* noundef %241, i32 noundef 0), !dbg !4194
  store i32 %242, i32* %28, align 4, !dbg !4192, !tbaa !3272
  %243 = bitcast i32* %29 to i8*, !dbg !4195
  call void @llvm.lifetime.start.p0i8(i64 4, i8* %243) #9, !dbg !4195
  call void @llvm.dbg.declare(metadata i32* %29, metadata !3893, metadata !DIExpression()), !dbg !4196
  %244 = load %struct.halide_buffer_t*, %struct.halide_buffer_t** %7, align 8, !dbg !4197, !tbaa !3266
  %245 = call i32 @_halide_buffer_get_stride(%struct.halide_buffer_t* noundef %244, i32 noundef 0), !dbg !4198
  store i32 %245, i32* %29, align 4, !dbg !4196, !tbaa !3272
  %246 = bitcast i8** %30 to i8*, !dbg !4199
  call void @llvm.lifetime.start.p0i8(i64 8, i8* %246) #9, !dbg !4199
  call void @llvm.dbg.declare(metadata i8** %30, metadata !3894, metadata !DIExpression()), !dbg !4200
  %247 = load %struct.halide_buffer_t*, %struct.halide_buffer_t** %5, align 8, !dbg !4201, !tbaa !3266
  %248 = call i8* @_halide_buffer_get_host(%struct.halide_buffer_t* noundef %247), !dbg !4202
  store i8* %248, i8** %30, align 8, !dbg !4200, !tbaa !3266
  %249 = bitcast i8** %31 to i8*, !dbg !4203
  call void @llvm.lifetime.start.p0i8(i64 8, i8* %249) #9, !dbg !4203
  call void @llvm.dbg.declare(metadata i8** %31, metadata !3895, metadata !DIExpression()), !dbg !4204
  %250 = load i8*, i8** %30, align 8, !dbg !4205, !tbaa !3266
  store i8* %250, i8** %31, align 8, !dbg !4204, !tbaa !3266
  call void @_Z19halide_maybe_unusedIPhEvRKT_(i8** noundef nonnull align 8 dereferenceable(8) %31), !dbg !4206
  %251 = bitcast i32* %32 to i8*, !dbg !4207
  call void @llvm.lifetime.start.p0i8(i64 4, i8* %251) #9, !dbg !4207
  call void @llvm.dbg.declare(metadata i32* %32, metadata !3896, metadata !DIExpression()), !dbg !4208
  %252 = load %struct.halide_buffer_t*, %struct.halide_buffer_t** %5, align 8, !dbg !4209, !tbaa !3266
  %253 = call i32 @_halide_buffer_get_type(%struct.halide_buffer_t* noundef %252), !dbg !4210
  store i32 %253, i32* %32, align 4, !dbg !4208, !tbaa !3272
  call void @llvm.lifetime.start.p0i8(i64 1, i8* %33) #9, !dbg !4211
  call void @llvm.dbg.declare(metadata i8* %33, metadata !3897, metadata !DIExpression()), !dbg !4212
  %254 = load %struct.halide_buffer_t*, %struct.halide_buffer_t** %5, align 8, !dbg !4213, !tbaa !3266
  %255 = call zeroext i1 @_halide_buffer_get_device_dirty(%struct.halide_buffer_t* noundef %254), !dbg !4214
  %256 = zext i1 %255 to i8, !dbg !4212
  store i8 %256, i8* %33, align 1, !dbg !4212, !tbaa !4118
  %257 = bitcast i32* %34 to i8*, !dbg !4215
  call void @llvm.lifetime.start.p0i8(i64 4, i8* %257) #9, !dbg !4215
  call void @llvm.dbg.declare(metadata i32* %34, metadata !3898, metadata !DIExpression()), !dbg !4216
  %258 = load %struct.halide_buffer_t*, %struct.halide_buffer_t** %5, align 8, !dbg !4217, !tbaa !3266
  %259 = call i32 @_halide_buffer_get_dimensions(%struct.halide_buffer_t* noundef %258), !dbg !4218
  store i32 %259, i32* %34, align 4, !dbg !4216, !tbaa !3272
  %260 = bitcast i32* %35 to i8*, !dbg !4219
  call void @llvm.lifetime.start.p0i8(i64 4, i8* %260) #9, !dbg !4219
  call void @llvm.dbg.declare(metadata i32* %35, metadata !3899, metadata !DIExpression()), !dbg !4220
  %261 = load %struct.halide_buffer_t*, %struct.halide_buffer_t** %5, align 8, !dbg !4221, !tbaa !3266
  %262 = call i32 @_halide_buffer_get_min(%struct.halide_buffer_t* noundef %261, i32 noundef 0), !dbg !4222
  store i32 %262, i32* %35, align 4, !dbg !4220, !tbaa !3272
  %263 = bitcast i32* %36 to i8*, !dbg !4223
  call void @llvm.lifetime.start.p0i8(i64 4, i8* %263) #9, !dbg !4223
  call void @llvm.dbg.declare(metadata i32* %36, metadata !3900, metadata !DIExpression()), !dbg !4224
  %264 = load %struct.halide_buffer_t*, %struct.halide_buffer_t** %5, align 8, !dbg !4225, !tbaa !3266
  %265 = call i32 @_halide_buffer_get_extent(%struct.halide_buffer_t* noundef %264, i32 noundef 0), !dbg !4226
  store i32 %265, i32* %36, align 4, !dbg !4224, !tbaa !3272
  %266 = bitcast i32* %37 to i8*, !dbg !4227
  call void @llvm.lifetime.start.p0i8(i64 4, i8* %266) #9, !dbg !4227
  call void @llvm.dbg.declare(metadata i32* %37, metadata !3901, metadata !DIExpression()), !dbg !4228
  %267 = load %struct.halide_buffer_t*, %struct.halide_buffer_t** %5, align 8, !dbg !4229, !tbaa !3266
  %268 = call i32 @_halide_buffer_get_stride(%struct.halide_buffer_t* noundef %267, i32 noundef 0), !dbg !4230
  store i32 %268, i32* %37, align 4, !dbg !4228, !tbaa !3272
  %269 = bitcast i8** %38 to i8*, !dbg !4231
  call void @llvm.lifetime.start.p0i8(i64 8, i8* %269) #9, !dbg !4231
  call void @llvm.dbg.declare(metadata i8** %38, metadata !3902, metadata !DIExpression()), !dbg !4232
  %270 = load %struct.halide_buffer_t*, %struct.halide_buffer_t** %6, align 8, !dbg !4233, !tbaa !3266
  %271 = call i8* @_halide_buffer_get_host(%struct.halide_buffer_t* noundef %270), !dbg !4234
  store i8* %271, i8** %38, align 8, !dbg !4232, !tbaa !3266
  %272 = bitcast i8** %39 to i8*, !dbg !4235
  call void @llvm.lifetime.start.p0i8(i64 8, i8* %272) #9, !dbg !4235
  call void @llvm.dbg.declare(metadata i8** %39, metadata !3903, metadata !DIExpression()), !dbg !4236
  %273 = load i8*, i8** %38, align 8, !dbg !4237, !tbaa !3266
  store i8* %273, i8** %39, align 8, !dbg !4236, !tbaa !3266
  call void @_Z19halide_maybe_unusedIPhEvRKT_(i8** noundef nonnull align 8 dereferenceable(8) %39), !dbg !4238
  %274 = bitcast i32* %40 to i8*, !dbg !4239
  call void @llvm.lifetime.start.p0i8(i64 4, i8* %274) #9, !dbg !4239
  call void @llvm.dbg.declare(metadata i32* %40, metadata !3904, metadata !DIExpression()), !dbg !4240
  %275 = load %struct.halide_buffer_t*, %struct.halide_buffer_t** %6, align 8, !dbg !4241, !tbaa !3266
  %276 = call i32 @_halide_buffer_get_type(%struct.halide_buffer_t* noundef %275), !dbg !4242
  store i32 %276, i32* %40, align 4, !dbg !4240, !tbaa !3272
  call void @llvm.lifetime.start.p0i8(i64 1, i8* %41) #9, !dbg !4243
  call void @llvm.dbg.declare(metadata i8* %41, metadata !3905, metadata !DIExpression()), !dbg !4244
  %277 = load %struct.halide_buffer_t*, %struct.halide_buffer_t** %6, align 8, !dbg !4245, !tbaa !3266
  %278 = call zeroext i1 @_halide_buffer_get_device_dirty(%struct.halide_buffer_t* noundef %277), !dbg !4246
  %279 = zext i1 %278 to i8, !dbg !4244
  store i8 %279, i8* %41, align 1, !dbg !4244, !tbaa !4118
  %280 = bitcast i32* %42 to i8*, !dbg !4247
  call void @llvm.lifetime.start.p0i8(i64 4, i8* %280) #9, !dbg !4247
  call void @llvm.dbg.declare(metadata i32* %42, metadata !3906, metadata !DIExpression()), !dbg !4248
  %281 = load %struct.halide_buffer_t*, %struct.halide_buffer_t** %6, align 8, !dbg !4249, !tbaa !3266
  %282 = call i32 @_halide_buffer_get_dimensions(%struct.halide_buffer_t* noundef %281), !dbg !4250
  store i32 %282, i32* %42, align 4, !dbg !4248, !tbaa !3272
  %283 = bitcast i32* %43 to i8*, !dbg !4251
  call void @llvm.lifetime.start.p0i8(i64 4, i8* %283) #9, !dbg !4251
  call void @llvm.dbg.declare(metadata i32* %43, metadata !3907, metadata !DIExpression()), !dbg !4252
  %284 = load %struct.halide_buffer_t*, %struct.halide_buffer_t** %6, align 8, !dbg !4253, !tbaa !3266
  %285 = call i32 @_halide_buffer_get_min(%struct.halide_buffer_t* noundef %284, i32 noundef 0), !dbg !4254
  store i32 %285, i32* %43, align 4, !dbg !4252, !tbaa !3272
  %286 = bitcast i32* %44 to i8*, !dbg !4255
  call void @llvm.lifetime.start.p0i8(i64 4, i8* %286) #9, !dbg !4255
  call void @llvm.dbg.declare(metadata i32* %44, metadata !3908, metadata !DIExpression()), !dbg !4256
  %287 = load %struct.halide_buffer_t*, %struct.halide_buffer_t** %6, align 8, !dbg !4257, !tbaa !3266
  %288 = call i32 @_halide_buffer_get_extent(%struct.halide_buffer_t* noundef %287, i32 noundef 0), !dbg !4258
  store i32 %288, i32* %44, align 4, !dbg !4256, !tbaa !3272
  %289 = bitcast i32* %45 to i8*, !dbg !4259
  call void @llvm.lifetime.start.p0i8(i64 4, i8* %289) #9, !dbg !4259
  call void @llvm.dbg.declare(metadata i32* %45, metadata !3909, metadata !DIExpression()), !dbg !4260
  %290 = load %struct.halide_buffer_t*, %struct.halide_buffer_t** %6, align 8, !dbg !4261, !tbaa !3266
  %291 = call i32 @_halide_buffer_get_stride(%struct.halide_buffer_t* noundef %290, i32 noundef 0), !dbg !4262
  store i32 %291, i32* %45, align 4, !dbg !4260, !tbaa !3272
  call void @llvm.lifetime.start.p0i8(i64 1, i8* %46) #9, !dbg !4263
  call void @llvm.dbg.declare(metadata i8* %46, metadata !3910, metadata !DIExpression()), !dbg !4264
  %292 = load %struct.halide_buffer_t*, %struct.halide_buffer_t** %7, align 8, !dbg !4265, !tbaa !3266
  %293 = call zeroext i1 @_halide_buffer_is_bounds_query(%struct.halide_buffer_t* noundef %292), !dbg !4266
  %294 = zext i1 %293 to i8, !dbg !4264
  store i8 %294, i8* %46, align 1, !dbg !4264, !tbaa !4118
  %295 = load i8, i8* %46, align 1, !dbg !4267, !tbaa !4118, !range !4121
  %296 = trunc i8 %295 to i1, !dbg !4267
  br i1 %296, label %297, label %324, !dbg !4268

297:                                              ; preds = %222
  %298 = bitcast %struct.halide_dimension_t** %47 to i8*, !dbg !4269
  call void @llvm.lifetime.start.p0i8(i64 8, i8* %298) #9, !dbg !4269
  call void @llvm.dbg.declare(metadata %struct.halide_dimension_t** %47, metadata !3911, metadata !DIExpression()), !dbg !4270
  %299 = load %struct.halide_buffer_t*, %struct.halide_buffer_t** %7, align 8, !dbg !4271, !tbaa !3266
  %300 = call %struct.halide_dimension_t* @_halide_buffer_get_shape(%struct.halide_buffer_t* noundef %299), !dbg !4272
  store %struct.halide_dimension_t* %300, %struct.halide_dimension_t** %47, align 8, !dbg !4270, !tbaa !3266
  %301 = bitcast i8** %48 to i8*, !dbg !4273
  call void @llvm.lifetime.start.p0i8(i64 8, i8* %301) #9, !dbg !4273
  call void @llvm.dbg.declare(metadata i8** %48, metadata !3914, metadata !DIExpression()), !dbg !4274
  store i8* null, i8** %48, align 8, !dbg !4274, !tbaa !3266
  %302 = bitcast i64* %49 to i8*, !dbg !4275
  call void @llvm.lifetime.start.p0i8(i64 8, i8* %302) #9, !dbg !4275
  call void @llvm.dbg.declare(metadata i64* %49, metadata !3915, metadata !DIExpression()), !dbg !4276
  store i64 0, i64* %49, align 8, !dbg !4276, !tbaa !3670
  %303 = bitcast %struct.halide_device_interface_t** %50 to i8*, !dbg !4277
  call void @llvm.lifetime.start.p0i8(i64 8, i8* %303) #9, !dbg !4277
  call void @llvm.dbg.declare(metadata %struct.halide_device_interface_t** %50, metadata !3916, metadata !DIExpression()), !dbg !4278
  store %struct.halide_device_interface_t* null, %struct.halide_device_interface_t** %50, align 8, !dbg !4278, !tbaa !3266
  %304 = bitcast [1 x %struct.halide_dimension_t]* %51 to i8*, !dbg !4279
  call void @llvm.lifetime.start.p0i8(i64 16, i8* %304) #9, !dbg !4279
  call void @llvm.dbg.declare(metadata [1 x %struct.halide_dimension_t]* %51, metadata !3917, metadata !DIExpression()), !dbg !4280
  %305 = getelementptr inbounds [1 x %struct.halide_dimension_t], [1 x %struct.halide_dimension_t]* %51, i64 0, i64 0, !dbg !4281
  call void @_ZN18halide_dimension_tC1Eiiij(%struct.halide_dimension_t* noundef nonnull align 4 dereferenceable(16) %305, i32 noundef 0, i32 noundef 1, i32 noundef 1, i32 noundef 0), !dbg !4282
  %306 = bitcast %struct.halide_dimension_t** %52 to i8*, !dbg !4283
  call void @llvm.lifetime.start.p0i8(i64 8, i8* %306) #9, !dbg !4283
  call void @llvm.dbg.declare(metadata %struct.halide_dimension_t** %52, metadata !3919, metadata !DIExpression()), !dbg !4284
  %307 = getelementptr inbounds [1 x %struct.halide_dimension_t], [1 x %struct.halide_dimension_t]* %51, i64 0, i64 0, !dbg !4285
  store %struct.halide_dimension_t* %307, %struct.halide_dimension_t** %52, align 8, !dbg !4284, !tbaa !3266
  %308 = bitcast %struct.halide_buffer_t** %53 to i8*, !dbg !4286
  call void @llvm.lifetime.start.p0i8(i64 8, i8* %308) #9, !dbg !4286
  call void @llvm.dbg.declare(metadata %struct.halide_buffer_t** %53, metadata !3921, metadata !DIExpression()), !dbg !4287
  %309 = load %struct.halide_buffer_t*, %struct.halide_buffer_t** %7, align 8, !dbg !4288, !tbaa !3266
  %310 = load %struct.halide_dimension_t*, %struct.halide_dimension_t** %47, align 8, !dbg !4289, !tbaa !3266
  %311 = load i8*, i8** %48, align 8, !dbg !4290, !tbaa !3266
  %312 = load i64, i64* %49, align 8, !dbg !4291, !tbaa !3670
  %313 = load %struct.halide_device_interface_t*, %struct.halide_device_interface_t** %50, align 8, !dbg !4292, !tbaa !3266
  %314 = load %struct.halide_dimension_t*, %struct.halide_dimension_t** %52, align 8, !dbg !4293, !tbaa !3266
  %315 = load i64, i64* %49, align 8, !dbg !4294, !tbaa !3670
  %316 = call %struct.halide_buffer_t* @_halide_buffer_init(%struct.halide_buffer_t* noundef %309, %struct.halide_dimension_t* noundef %310, i8* noundef %311, i64 noundef %312, %struct.halide_device_interface_t* noundef %313, i32 noundef 2, i32 noundef 32, i32 noundef 1, %struct.halide_dimension_t* noundef %314, i64 noundef %315), !dbg !4295
  store %struct.halide_buffer_t* %316, %struct.halide_buffer_t** %53, align 8, !dbg !4287, !tbaa !3266
  call void @_Z19halide_maybe_unusedIP15halide_buffer_tEvRKT_(%struct.halide_buffer_t** noundef nonnull align 8 dereferenceable(8) %53), !dbg !4296
  %317 = bitcast %struct.halide_buffer_t** %53 to i8*, !dbg !4297
  call void @llvm.lifetime.end.p0i8(i64 8, i8* %317) #9, !dbg !4297
  %318 = bitcast %struct.halide_dimension_t** %52 to i8*, !dbg !4297
  call void @llvm.lifetime.end.p0i8(i64 8, i8* %318) #9, !dbg !4297
  %319 = bitcast [1 x %struct.halide_dimension_t]* %51 to i8*, !dbg !4297
  call void @llvm.lifetime.end.p0i8(i64 16, i8* %319) #9, !dbg !4297
  %320 = bitcast %struct.halide_device_interface_t** %50 to i8*, !dbg !4297
  call void @llvm.lifetime.end.p0i8(i64 8, i8* %320) #9, !dbg !4297
  %321 = bitcast i64* %49 to i8*, !dbg !4297
  call void @llvm.lifetime.end.p0i8(i64 8, i8* %321) #9, !dbg !4297
  %322 = bitcast i8** %48 to i8*, !dbg !4297
  call void @llvm.lifetime.end.p0i8(i64 8, i8* %322) #9, !dbg !4297
  %323 = bitcast %struct.halide_dimension_t** %47 to i8*, !dbg !4297
  call void @llvm.lifetime.end.p0i8(i64 8, i8* %323) #9, !dbg !4297
  br label %324, !dbg !4298

324:                                              ; preds = %297, %222
  call void @llvm.lifetime.start.p0i8(i64 1, i8* %54) #9, !dbg !4299
  call void @llvm.dbg.declare(metadata i8* %54, metadata !3922, metadata !DIExpression()), !dbg !4300
  %325 = load %struct.halide_buffer_t*, %struct.halide_buffer_t** %5, align 8, !dbg !4301, !tbaa !3266
  %326 = call zeroext i1 @_halide_buffer_is_bounds_query(%struct.halide_buffer_t* noundef %325), !dbg !4302
  %327 = zext i1 %326 to i8, !dbg !4300
  store i8 %327, i8* %54, align 1, !dbg !4300, !tbaa !4118
  %328 = load i8, i8* %54, align 1, !dbg !4303, !tbaa !4118, !range !4121
  %329 = trunc i8 %328 to i1, !dbg !4303
  br i1 %329, label %330, label %359, !dbg !4304

330:                                              ; preds = %324
  %331 = bitcast %struct.halide_dimension_t** %55 to i8*, !dbg !4305
  call void @llvm.lifetime.start.p0i8(i64 8, i8* %331) #9, !dbg !4305
  call void @llvm.dbg.declare(metadata %struct.halide_dimension_t** %55, metadata !3923, metadata !DIExpression()), !dbg !4306
  %332 = load %struct.halide_buffer_t*, %struct.halide_buffer_t** %5, align 8, !dbg !4307, !tbaa !3266
  %333 = call %struct.halide_dimension_t* @_halide_buffer_get_shape(%struct.halide_buffer_t* noundef %332), !dbg !4308
  store %struct.halide_dimension_t* %333, %struct.halide_dimension_t** %55, align 8, !dbg !4306, !tbaa !3266
  %334 = bitcast i8** %56 to i8*, !dbg !4309
  call void @llvm.lifetime.start.p0i8(i64 8, i8* %334) #9, !dbg !4309
  call void @llvm.dbg.declare(metadata i8** %56, metadata !3926, metadata !DIExpression()), !dbg !4310
  store i8* null, i8** %56, align 8, !dbg !4310, !tbaa !3266
  %335 = bitcast i64* %57 to i8*, !dbg !4311
  call void @llvm.lifetime.start.p0i8(i64 8, i8* %335) #9, !dbg !4311
  call void @llvm.dbg.declare(metadata i64* %57, metadata !3927, metadata !DIExpression()), !dbg !4312
  store i64 0, i64* %57, align 8, !dbg !4312, !tbaa !3670
  %336 = bitcast %struct.halide_device_interface_t** %58 to i8*, !dbg !4313
  call void @llvm.lifetime.start.p0i8(i64 8, i8* %336) #9, !dbg !4313
  call void @llvm.dbg.declare(metadata %struct.halide_device_interface_t** %58, metadata !3928, metadata !DIExpression()), !dbg !4314
  store %struct.halide_device_interface_t* null, %struct.halide_device_interface_t** %58, align 8, !dbg !4314, !tbaa !3266
  %337 = bitcast [1 x %struct.halide_dimension_t]* %59 to i8*, !dbg !4315
  call void @llvm.lifetime.start.p0i8(i64 16, i8* %337) #9, !dbg !4315
  call void @llvm.dbg.declare(metadata [1 x %struct.halide_dimension_t]* %59, metadata !3929, metadata !DIExpression()), !dbg !4316
  %338 = getelementptr inbounds [1 x %struct.halide_dimension_t], [1 x %struct.halide_dimension_t]* %59, i64 0, i64 0, !dbg !4317
  %339 = load i32, i32* %35, align 4, !dbg !4318, !tbaa !3272
  %340 = load i32, i32* %36, align 4, !dbg !4319, !tbaa !3272
  call void @_ZN18halide_dimension_tC1Eiiij(%struct.halide_dimension_t* noundef nonnull align 4 dereferenceable(16) %338, i32 noundef %339, i32 noundef %340, i32 noundef 1, i32 noundef 0), !dbg !4320
  %341 = bitcast %struct.halide_dimension_t** %60 to i8*, !dbg !4321
  call void @llvm.lifetime.start.p0i8(i64 8, i8* %341) #9, !dbg !4321
  call void @llvm.dbg.declare(metadata %struct.halide_dimension_t** %60, metadata !3930, metadata !DIExpression()), !dbg !4322
  %342 = getelementptr inbounds [1 x %struct.halide_dimension_t], [1 x %struct.halide_dimension_t]* %59, i64 0, i64 0, !dbg !4323
  store %struct.halide_dimension_t* %342, %struct.halide_dimension_t** %60, align 8, !dbg !4322, !tbaa !3266
  %343 = bitcast %struct.halide_buffer_t** %61 to i8*, !dbg !4324
  call void @llvm.lifetime.start.p0i8(i64 8, i8* %343) #9, !dbg !4324
  call void @llvm.dbg.declare(metadata %struct.halide_buffer_t** %61, metadata !3931, metadata !DIExpression()), !dbg !4325
  %344 = load %struct.halide_buffer_t*, %struct.halide_buffer_t** %5, align 8, !dbg !4326, !tbaa !3266
  %345 = load %struct.halide_dimension_t*, %struct.halide_dimension_t** %55, align 8, !dbg !4327, !tbaa !3266
  %346 = load i8*, i8** %56, align 8, !dbg !4328, !tbaa !3266
  %347 = load i64, i64* %57, align 8, !dbg !4329, !tbaa !3670
  %348 = load %struct.halide_device_interface_t*, %struct.halide_device_interface_t** %58, align 8, !dbg !4330, !tbaa !3266
  %349 = load %struct.halide_dimension_t*, %struct.halide_dimension_t** %60, align 8, !dbg !4331, !tbaa !3266
  %350 = load i64, i64* %57, align 8, !dbg !4332, !tbaa !3670
  %351 = call %struct.halide_buffer_t* @_halide_buffer_init(%struct.halide_buffer_t* noundef %344, %struct.halide_dimension_t* noundef %345, i8* noundef %346, i64 noundef %347, %struct.halide_device_interface_t* noundef %348, i32 noundef 2, i32 noundef 32, i32 noundef 1, %struct.halide_dimension_t* noundef %349, i64 noundef %350), !dbg !4333
  store %struct.halide_buffer_t* %351, %struct.halide_buffer_t** %61, align 8, !dbg !4325, !tbaa !3266
  call void @_Z19halide_maybe_unusedIP15halide_buffer_tEvRKT_(%struct.halide_buffer_t** noundef nonnull align 8 dereferenceable(8) %61), !dbg !4334
  %352 = bitcast %struct.halide_buffer_t** %61 to i8*, !dbg !4335
  call void @llvm.lifetime.end.p0i8(i64 8, i8* %352) #9, !dbg !4335
  %353 = bitcast %struct.halide_dimension_t** %60 to i8*, !dbg !4335
  call void @llvm.lifetime.end.p0i8(i64 8, i8* %353) #9, !dbg !4335
  %354 = bitcast [1 x %struct.halide_dimension_t]* %59 to i8*, !dbg !4335
  call void @llvm.lifetime.end.p0i8(i64 16, i8* %354) #9, !dbg !4335
  %355 = bitcast %struct.halide_device_interface_t** %58 to i8*, !dbg !4335
  call void @llvm.lifetime.end.p0i8(i64 8, i8* %355) #9, !dbg !4335
  %356 = bitcast i64* %57 to i8*, !dbg !4335
  call void @llvm.lifetime.end.p0i8(i64 8, i8* %356) #9, !dbg !4335
  %357 = bitcast i8** %56 to i8*, !dbg !4335
  call void @llvm.lifetime.end.p0i8(i64 8, i8* %357) #9, !dbg !4335
  %358 = bitcast %struct.halide_dimension_t** %55 to i8*, !dbg !4335
  call void @llvm.lifetime.end.p0i8(i64 8, i8* %358) #9, !dbg !4335
  br label %359, !dbg !4336

359:                                              ; preds = %330, %324
  call void @llvm.lifetime.start.p0i8(i64 1, i8* %62) #9, !dbg !4337
  call void @llvm.dbg.declare(metadata i8* %62, metadata !3932, metadata !DIExpression()), !dbg !4338
  %360 = load %struct.halide_buffer_t*, %struct.halide_buffer_t** %6, align 8, !dbg !4339, !tbaa !3266
  %361 = call zeroext i1 @_halide_buffer_is_bounds_query(%struct.halide_buffer_t* noundef %360), !dbg !4340
  %362 = zext i1 %361 to i8, !dbg !4338
  store i8 %362, i8* %62, align 1, !dbg !4338, !tbaa !4118
  %363 = load i8, i8* %62, align 1, !dbg !4341, !tbaa !4118, !range !4121
  %364 = trunc i8 %363 to i1, !dbg !4341
  br i1 %364, label %365, label %394, !dbg !4342

365:                                              ; preds = %359
  %366 = bitcast %struct.halide_dimension_t** %63 to i8*, !dbg !4343
  call void @llvm.lifetime.start.p0i8(i64 8, i8* %366) #9, !dbg !4343
  call void @llvm.dbg.declare(metadata %struct.halide_dimension_t** %63, metadata !3933, metadata !DIExpression()), !dbg !4344
  %367 = load %struct.halide_buffer_t*, %struct.halide_buffer_t** %6, align 8, !dbg !4345, !tbaa !3266
  %368 = call %struct.halide_dimension_t* @_halide_buffer_get_shape(%struct.halide_buffer_t* noundef %367), !dbg !4346
  store %struct.halide_dimension_t* %368, %struct.halide_dimension_t** %63, align 8, !dbg !4344, !tbaa !3266
  %369 = bitcast i8** %64 to i8*, !dbg !4347
  call void @llvm.lifetime.start.p0i8(i64 8, i8* %369) #9, !dbg !4347
  call void @llvm.dbg.declare(metadata i8** %64, metadata !3936, metadata !DIExpression()), !dbg !4348
  store i8* null, i8** %64, align 8, !dbg !4348, !tbaa !3266
  %370 = bitcast i64* %65 to i8*, !dbg !4349
  call void @llvm.lifetime.start.p0i8(i64 8, i8* %370) #9, !dbg !4349
  call void @llvm.dbg.declare(metadata i64* %65, metadata !3937, metadata !DIExpression()), !dbg !4350
  store i64 0, i64* %65, align 8, !dbg !4350, !tbaa !3670
  %371 = bitcast %struct.halide_device_interface_t** %66 to i8*, !dbg !4351
  call void @llvm.lifetime.start.p0i8(i64 8, i8* %371) #9, !dbg !4351
  call void @llvm.dbg.declare(metadata %struct.halide_device_interface_t** %66, metadata !3938, metadata !DIExpression()), !dbg !4352
  store %struct.halide_device_interface_t* null, %struct.halide_device_interface_t** %66, align 8, !dbg !4352, !tbaa !3266
  %372 = bitcast [1 x %struct.halide_dimension_t]* %67 to i8*, !dbg !4353
  call void @llvm.lifetime.start.p0i8(i64 16, i8* %372) #9, !dbg !4353
  call void @llvm.dbg.declare(metadata [1 x %struct.halide_dimension_t]* %67, metadata !3939, metadata !DIExpression()), !dbg !4354
  %373 = getelementptr inbounds [1 x %struct.halide_dimension_t], [1 x %struct.halide_dimension_t]* %67, i64 0, i64 0, !dbg !4355
  %374 = load i32, i32* %35, align 4, !dbg !4356, !tbaa !3272
  %375 = load i32, i32* %36, align 4, !dbg !4357, !tbaa !3272
  call void @_ZN18halide_dimension_tC1Eiiij(%struct.halide_dimension_t* noundef nonnull align 4 dereferenceable(16) %373, i32 noundef %374, i32 noundef %375, i32 noundef 1, i32 noundef 0), !dbg !4358
  %376 = bitcast %struct.halide_dimension_t** %68 to i8*, !dbg !4359
  call void @llvm.lifetime.start.p0i8(i64 8, i8* %376) #9, !dbg !4359
  call void @llvm.dbg.declare(metadata %struct.halide_dimension_t** %68, metadata !3940, metadata !DIExpression()), !dbg !4360
  %377 = getelementptr inbounds [1 x %struct.halide_dimension_t], [1 x %struct.halide_dimension_t]* %67, i64 0, i64 0, !dbg !4361
  store %struct.halide_dimension_t* %377, %struct.halide_dimension_t** %68, align 8, !dbg !4360, !tbaa !3266
  %378 = bitcast %struct.halide_buffer_t** %69 to i8*, !dbg !4362
  call void @llvm.lifetime.start.p0i8(i64 8, i8* %378) #9, !dbg !4362
  call void @llvm.dbg.declare(metadata %struct.halide_buffer_t** %69, metadata !3941, metadata !DIExpression()), !dbg !4363
  %379 = load %struct.halide_buffer_t*, %struct.halide_buffer_t** %6, align 8, !dbg !4364, !tbaa !3266
  %380 = load %struct.halide_dimension_t*, %struct.halide_dimension_t** %63, align 8, !dbg !4365, !tbaa !3266
  %381 = load i8*, i8** %64, align 8, !dbg !4366, !tbaa !3266
  %382 = load i64, i64* %65, align 8, !dbg !4367, !tbaa !3670
  %383 = load %struct.halide_device_interface_t*, %struct.halide_device_interface_t** %66, align 8, !dbg !4368, !tbaa !3266
  %384 = load %struct.halide_dimension_t*, %struct.halide_dimension_t** %68, align 8, !dbg !4369, !tbaa !3266
  %385 = load i64, i64* %65, align 8, !dbg !4370, !tbaa !3670
  %386 = call %struct.halide_buffer_t* @_halide_buffer_init(%struct.halide_buffer_t* noundef %379, %struct.halide_dimension_t* noundef %380, i8* noundef %381, i64 noundef %382, %struct.halide_device_interface_t* noundef %383, i32 noundef 2, i32 noundef 32, i32 noundef 1, %struct.halide_dimension_t* noundef %384, i64 noundef %385), !dbg !4371
  store %struct.halide_buffer_t* %386, %struct.halide_buffer_t** %69, align 8, !dbg !4363, !tbaa !3266
  call void @_Z19halide_maybe_unusedIP15halide_buffer_tEvRKT_(%struct.halide_buffer_t** noundef nonnull align 8 dereferenceable(8) %69), !dbg !4372
  %387 = bitcast %struct.halide_buffer_t** %69 to i8*, !dbg !4373
  call void @llvm.lifetime.end.p0i8(i64 8, i8* %387) #9, !dbg !4373
  %388 = bitcast %struct.halide_dimension_t** %68 to i8*, !dbg !4373
  call void @llvm.lifetime.end.p0i8(i64 8, i8* %388) #9, !dbg !4373
  %389 = bitcast [1 x %struct.halide_dimension_t]* %67 to i8*, !dbg !4373
  call void @llvm.lifetime.end.p0i8(i64 16, i8* %389) #9, !dbg !4373
  %390 = bitcast %struct.halide_device_interface_t** %66 to i8*, !dbg !4373
  call void @llvm.lifetime.end.p0i8(i64 8, i8* %390) #9, !dbg !4373
  %391 = bitcast i64* %65 to i8*, !dbg !4373
  call void @llvm.lifetime.end.p0i8(i64 8, i8* %391) #9, !dbg !4373
  %392 = bitcast i8** %64 to i8*, !dbg !4373
  call void @llvm.lifetime.end.p0i8(i64 8, i8* %392) #9, !dbg !4373
  %393 = bitcast %struct.halide_dimension_t** %63 to i8*, !dbg !4373
  call void @llvm.lifetime.end.p0i8(i64 8, i8* %393) #9, !dbg !4373
  br label %394, !dbg !4374

394:                                              ; preds = %365, %359
  call void @llvm.lifetime.start.p0i8(i64 1, i8* %70) #9, !dbg !4375
  call void @llvm.dbg.declare(metadata i8* %70, metadata !3942, metadata !DIExpression()), !dbg !4376
  %395 = load %struct.halide_buffer_t*, %struct.halide_buffer_t** %6, align 8, !dbg !4377, !tbaa !3266
  %396 = call zeroext i1 @_halide_buffer_is_bounds_query(%struct.halide_buffer_t* noundef %395), !dbg !4378
  %397 = zext i1 %396 to i8, !dbg !4376
  store i8 %397, i8* %70, align 1, !dbg !4376, !tbaa !4118
  call void @llvm.lifetime.start.p0i8(i64 1, i8* %71) #9, !dbg !4379
  call void @llvm.dbg.declare(metadata i8* %71, metadata !3943, metadata !DIExpression()), !dbg !4380
  %398 = load %struct.halide_buffer_t*, %struct.halide_buffer_t** %7, align 8, !dbg !4381, !tbaa !3266
  %399 = call zeroext i1 @_halide_buffer_is_bounds_query(%struct.halide_buffer_t* noundef %398), !dbg !4382
  %400 = zext i1 %399 to i8, !dbg !4380
  store i8 %400, i8* %71, align 1, !dbg !4380, !tbaa !4118
  call void @llvm.lifetime.start.p0i8(i64 1, i8* %72) #9, !dbg !4383
  call void @llvm.dbg.declare(metadata i8* %72, metadata !3944, metadata !DIExpression()), !dbg !4384
  %401 = load %struct.halide_buffer_t*, %struct.halide_buffer_t** %5, align 8, !dbg !4385, !tbaa !3266
  %402 = call zeroext i1 @_halide_buffer_is_bounds_query(%struct.halide_buffer_t* noundef %401), !dbg !4386
  %403 = zext i1 %402 to i8, !dbg !4384
  store i8 %403, i8* %72, align 1, !dbg !4384, !tbaa !4118
  call void @llvm.lifetime.start.p0i8(i64 1, i8* %73) #9, !dbg !4387
  call void @llvm.dbg.declare(metadata i8* %73, metadata !3945, metadata !DIExpression()), !dbg !4388
  %404 = load i8, i8* %71, align 1, !dbg !4389, !tbaa !4118, !range !4121
  %405 = trunc i8 %404 to i1, !dbg !4389
  br i1 %405, label %409, label %406, !dbg !4390

406:                                              ; preds = %394
  %407 = load i8, i8* %72, align 1, !dbg !4391, !tbaa !4118, !range !4121
  %408 = trunc i8 %407 to i1, !dbg !4391
  br label %409, !dbg !4390

409:                                              ; preds = %406, %394
  %410 = phi i1 [ true, %394 ], [ %408, %406 ]
  %411 = zext i1 %410 to i8, !dbg !4388
  store i8 %411, i8* %73, align 1, !dbg !4388, !tbaa !4118
  call void @llvm.lifetime.start.p0i8(i64 1, i8* %74) #9, !dbg !4392
  call void @llvm.dbg.declare(metadata i8* %74, metadata !3946, metadata !DIExpression()), !dbg !4393
  %412 = load i8, i8* %70, align 1, !dbg !4394, !tbaa !4118, !range !4121
  %413 = trunc i8 %412 to i1, !dbg !4394
  br i1 %413, label %417, label %414, !dbg !4395

414:                                              ; preds = %409
  %415 = load i8, i8* %73, align 1, !dbg !4396, !tbaa !4118, !range !4121
  %416 = trunc i8 %415 to i1, !dbg !4396
  br label %417, !dbg !4395

417:                                              ; preds = %414, %409
  %418 = phi i1 [ true, %409 ], [ %416, %414 ]
  %419 = zext i1 %418 to i8, !dbg !4393
  store i8 %419, i8* %74, align 1, !dbg !4393, !tbaa !4118
  call void @llvm.lifetime.start.p0i8(i64 1, i8* %75) #9, !dbg !4397
  call void @llvm.dbg.declare(metadata i8* %75, metadata !3947, metadata !DIExpression()), !dbg !4398
  %420 = load i8, i8* %74, align 1, !dbg !4399, !tbaa !4118, !range !4121
  %421 = trunc i8 %420 to i1, !dbg !4399
  %422 = xor i1 %421, true, !dbg !4400
  %423 = zext i1 %422 to i8, !dbg !4398
  store i8 %423, i8* %75, align 1, !dbg !4398, !tbaa !4118
  %424 = load i8, i8* %75, align 1, !dbg !4401, !tbaa !4118, !range !4121
  %425 = trunc i8 %424 to i1, !dbg !4401
  br i1 %425, label %426, label %973, !dbg !4402

426:                                              ; preds = %417
  %427 = bitcast i32* %76 to i8*, !dbg !4403
  call void @llvm.lifetime.start.p0i8(i64 4, i8* %427) #9, !dbg !4403
  call void @llvm.dbg.declare(metadata i32* %76, metadata !3948, metadata !DIExpression()), !dbg !4404
  store i32 73730, i32* %76, align 4, !dbg !4404, !tbaa !3272
  call void @llvm.lifetime.start.p0i8(i64 1, i8* %77) #9, !dbg !4405
  call void @llvm.dbg.declare(metadata i8* %77, metadata !3951, metadata !DIExpression()), !dbg !4406
  %428 = load i32, i32* %24, align 4, !dbg !4407, !tbaa !3272
  %429 = load i32, i32* %76, align 4, !dbg !4408, !tbaa !3272
  %430 = icmp eq i32 %428, %429, !dbg !4409
  %431 = zext i1 %430 to i8, !dbg !4406
  store i8 %431, i8* %77, align 1, !dbg !4406, !tbaa !4118
  %432 = load i8, i8* %77, align 1, !dbg !4410, !tbaa !4118, !range !4121
  %433 = trunc i8 %432 to i1, !dbg !4410
  br i1 %433, label %443, label %434, !dbg !4411

434:                                              ; preds = %426
  %435 = bitcast i32* %78 to i8*, !dbg !4412
  call void @llvm.lifetime.start.p0i8(i64 4, i8* %435) #9, !dbg !4412
  call void @llvm.dbg.declare(metadata i32* %78, metadata !3952, metadata !DIExpression()), !dbg !4413
  store i32 73730, i32* %78, align 4, !dbg !4413, !tbaa !3272
  %436 = bitcast i32* %79 to i8*, !dbg !4414
  call void @llvm.lifetime.start.p0i8(i64 4, i8* %436) #9, !dbg !4414
  call void @llvm.dbg.declare(metadata i32* %79, metadata !3955, metadata !DIExpression()), !dbg !4415
  %437 = load i32, i32* %24, align 4, !dbg !4416, !tbaa !3272
  %438 = load i32, i32* %78, align 4, !dbg !4417, !tbaa !3272
  %439 = call i32 @halide_error_bad_type(i8* noundef null, i8* noundef getelementptr inbounds ([21 x i8], [21 x i8]* @.str.35, i64 0, i64 0), i32 noundef %437, i32 noundef %438), !dbg !4418
  store i32 %439, i32* %79, align 4, !dbg !4415, !tbaa !3272
  %440 = load i32, i32* %79, align 4, !dbg !4419, !tbaa !3272
  store i32 %440, i32* %4, align 4, !dbg !4420
  store i32 1, i32* %13, align 4
  %441 = bitcast i32* %79 to i8*, !dbg !4421
  call void @llvm.lifetime.end.p0i8(i64 4, i8* %441) #9, !dbg !4421
  %442 = bitcast i32* %78 to i8*, !dbg !4421
  call void @llvm.lifetime.end.p0i8(i64 4, i8* %442) #9, !dbg !4421
  br label %969

443:                                              ; preds = %426
  call void @llvm.lifetime.start.p0i8(i64 1, i8* %80) #9, !dbg !4422
  call void @llvm.dbg.declare(metadata i8* %80, metadata !3956, metadata !DIExpression()), !dbg !4423
  %444 = load i32, i32* %26, align 4, !dbg !4424, !tbaa !3272
  %445 = icmp eq i32 %444, 1, !dbg !4425
  %446 = zext i1 %445 to i8, !dbg !4423
  store i8 %446, i8* %80, align 1, !dbg !4423, !tbaa !4118
  %447 = load i8, i8* %80, align 1, !dbg !4426, !tbaa !4118, !range !4121
  %448 = trunc i8 %447 to i1, !dbg !4426
  br i1 %448, label %455, label %449, !dbg !4427

449:                                              ; preds = %443
  %450 = bitcast i32* %81 to i8*, !dbg !4428
  call void @llvm.lifetime.start.p0i8(i64 4, i8* %450) #9, !dbg !4428
  call void @llvm.dbg.declare(metadata i32* %81, metadata !3957, metadata !DIExpression()), !dbg !4429
  %451 = load i32, i32* %26, align 4, !dbg !4430, !tbaa !3272
  %452 = call i32 @halide_error_bad_dimensions(i8* noundef null, i8* noundef getelementptr inbounds ([21 x i8], [21 x i8]* @.str.35, i64 0, i64 0), i32 noundef %451, i32 noundef 1), !dbg !4431
  store i32 %452, i32* %81, align 4, !dbg !4429, !tbaa !3272
  %453 = load i32, i32* %81, align 4, !dbg !4432, !tbaa !3272
  store i32 %453, i32* %4, align 4, !dbg !4433
  store i32 1, i32* %13, align 4
  %454 = bitcast i32* %81 to i8*, !dbg !4434
  call void @llvm.lifetime.end.p0i8(i64 4, i8* %454) #9, !dbg !4434
  br label %968

455:                                              ; preds = %443
  %456 = bitcast i32* %82 to i8*, !dbg !4435
  call void @llvm.lifetime.start.p0i8(i64 4, i8* %456) #9, !dbg !4435
  call void @llvm.dbg.declare(metadata i32* %82, metadata !3960, metadata !DIExpression()), !dbg !4436
  store i32 73730, i32* %82, align 4, !dbg !4436, !tbaa !3272
  call void @llvm.lifetime.start.p0i8(i64 1, i8* %83) #9, !dbg !4437
  call void @llvm.dbg.declare(metadata i8* %83, metadata !3961, metadata !DIExpression()), !dbg !4438
  %457 = load i32, i32* %32, align 4, !dbg !4439, !tbaa !3272
  %458 = load i32, i32* %82, align 4, !dbg !4440, !tbaa !3272
  %459 = icmp eq i32 %457, %458, !dbg !4441
  %460 = zext i1 %459 to i8, !dbg !4438
  store i8 %460, i8* %83, align 1, !dbg !4438, !tbaa !4118
  %461 = load i8, i8* %83, align 1, !dbg !4442, !tbaa !4118, !range !4121
  %462 = trunc i8 %461 to i1, !dbg !4442
  br i1 %462, label %472, label %463, !dbg !4443

463:                                              ; preds = %455
  %464 = bitcast i32* %84 to i8*, !dbg !4444
  call void @llvm.lifetime.start.p0i8(i64 4, i8* %464) #9, !dbg !4444
  call void @llvm.dbg.declare(metadata i32* %84, metadata !3962, metadata !DIExpression()), !dbg !4445
  store i32 73730, i32* %84, align 4, !dbg !4445, !tbaa !3272
  %465 = bitcast i32* %85 to i8*, !dbg !4446
  call void @llvm.lifetime.start.p0i8(i64 4, i8* %465) #9, !dbg !4446
  call void @llvm.dbg.declare(metadata i32* %85, metadata !3965, metadata !DIExpression()), !dbg !4447
  %466 = load i32, i32* %32, align 4, !dbg !4448, !tbaa !3272
  %467 = load i32, i32* %84, align 4, !dbg !4449, !tbaa !3272
  %468 = call i32 @halide_error_bad_type(i8* noundef null, i8* noundef getelementptr inbounds ([21 x i8], [21 x i8]* @.str.36, i64 0, i64 0), i32 noundef %466, i32 noundef %467), !dbg !4450
  store i32 %468, i32* %85, align 4, !dbg !4447, !tbaa !3272
  %469 = load i32, i32* %85, align 4, !dbg !4451, !tbaa !3272
  store i32 %469, i32* %4, align 4, !dbg !4452
  store i32 1, i32* %13, align 4
  %470 = bitcast i32* %85 to i8*, !dbg !4453
  call void @llvm.lifetime.end.p0i8(i64 4, i8* %470) #9, !dbg !4453
  %471 = bitcast i32* %84 to i8*, !dbg !4453
  call void @llvm.lifetime.end.p0i8(i64 4, i8* %471) #9, !dbg !4453
  br label %966

472:                                              ; preds = %455
  call void @llvm.lifetime.start.p0i8(i64 1, i8* %86) #9, !dbg !4454
  call void @llvm.dbg.declare(metadata i8* %86, metadata !3966, metadata !DIExpression()), !dbg !4455
  %473 = load i32, i32* %34, align 4, !dbg !4456, !tbaa !3272
  %474 = icmp eq i32 %473, 1, !dbg !4457
  %475 = zext i1 %474 to i8, !dbg !4455
  store i8 %475, i8* %86, align 1, !dbg !4455, !tbaa !4118
  %476 = load i8, i8* %86, align 1, !dbg !4458, !tbaa !4118, !range !4121
  %477 = trunc i8 %476 to i1, !dbg !4458
  br i1 %477, label %484, label %478, !dbg !4459

478:                                              ; preds = %472
  %479 = bitcast i32* %87 to i8*, !dbg !4460
  call void @llvm.lifetime.start.p0i8(i64 4, i8* %479) #9, !dbg !4460
  call void @llvm.dbg.declare(metadata i32* %87, metadata !3967, metadata !DIExpression()), !dbg !4461
  %480 = load i32, i32* %34, align 4, !dbg !4462, !tbaa !3272
  %481 = call i32 @halide_error_bad_dimensions(i8* noundef null, i8* noundef getelementptr inbounds ([21 x i8], [21 x i8]* @.str.36, i64 0, i64 0), i32 noundef %480, i32 noundef 1), !dbg !4463
  store i32 %481, i32* %87, align 4, !dbg !4461, !tbaa !3272
  %482 = load i32, i32* %87, align 4, !dbg !4464, !tbaa !3272
  store i32 %482, i32* %4, align 4, !dbg !4465
  store i32 1, i32* %13, align 4
  %483 = bitcast i32* %87 to i8*, !dbg !4466
  call void @llvm.lifetime.end.p0i8(i64 4, i8* %483) #9, !dbg !4466
  br label %965

484:                                              ; preds = %472
  %485 = bitcast i32* %88 to i8*, !dbg !4467
  call void @llvm.lifetime.start.p0i8(i64 4, i8* %485) #9, !dbg !4467
  call void @llvm.dbg.declare(metadata i32* %88, metadata !3970, metadata !DIExpression()), !dbg !4468
  store i32 73730, i32* %88, align 4, !dbg !4468, !tbaa !3272
  call void @llvm.lifetime.start.p0i8(i64 1, i8* %89) #9, !dbg !4469
  call void @llvm.dbg.declare(metadata i8* %89, metadata !3971, metadata !DIExpression()), !dbg !4470
  %486 = load i32, i32* %40, align 4, !dbg !4471, !tbaa !3272
  %487 = load i32, i32* %88, align 4, !dbg !4472, !tbaa !3272
  %488 = icmp eq i32 %486, %487, !dbg !4473
  %489 = zext i1 %488 to i8, !dbg !4470
  store i8 %489, i8* %89, align 1, !dbg !4470, !tbaa !4118
  %490 = load i8, i8* %89, align 1, !dbg !4474, !tbaa !4118, !range !4121
  %491 = trunc i8 %490 to i1, !dbg !4474
  br i1 %491, label %501, label %492, !dbg !4475

492:                                              ; preds = %484
  %493 = bitcast i32* %90 to i8*, !dbg !4476
  call void @llvm.lifetime.start.p0i8(i64 4, i8* %493) #9, !dbg !4476
  call void @llvm.dbg.declare(metadata i32* %90, metadata !3972, metadata !DIExpression()), !dbg !4477
  store i32 73730, i32* %90, align 4, !dbg !4477, !tbaa !3272
  %494 = bitcast i32* %91 to i8*, !dbg !4478
  call void @llvm.lifetime.start.p0i8(i64 4, i8* %494) #9, !dbg !4478
  call void @llvm.dbg.declare(metadata i32* %91, metadata !3975, metadata !DIExpression()), !dbg !4479
  %495 = load i32, i32* %40, align 4, !dbg !4480, !tbaa !3272
  %496 = load i32, i32* %90, align 4, !dbg !4481, !tbaa !3272
  %497 = call i32 @halide_error_bad_type(i8* noundef null, i8* noundef getelementptr inbounds ([21 x i8], [21 x i8]* @.str.37, i64 0, i64 0), i32 noundef %495, i32 noundef %496), !dbg !4482
  store i32 %497, i32* %91, align 4, !dbg !4479, !tbaa !3272
  %498 = load i32, i32* %91, align 4, !dbg !4483, !tbaa !3272
  store i32 %498, i32* %4, align 4, !dbg !4484
  store i32 1, i32* %13, align 4
  %499 = bitcast i32* %91 to i8*, !dbg !4485
  call void @llvm.lifetime.end.p0i8(i64 4, i8* %499) #9, !dbg !4485
  %500 = bitcast i32* %90 to i8*, !dbg !4485
  call void @llvm.lifetime.end.p0i8(i64 4, i8* %500) #9, !dbg !4485
  br label %963

501:                                              ; preds = %484
  call void @llvm.lifetime.start.p0i8(i64 1, i8* %92) #9, !dbg !4486
  call void @llvm.dbg.declare(metadata i8* %92, metadata !3976, metadata !DIExpression()), !dbg !4487
  %502 = load i32, i32* %42, align 4, !dbg !4488, !tbaa !3272
  %503 = icmp eq i32 %502, 1, !dbg !4489
  %504 = zext i1 %503 to i8, !dbg !4487
  store i8 %504, i8* %92, align 1, !dbg !4487, !tbaa !4118
  %505 = load i8, i8* %92, align 1, !dbg !4490, !tbaa !4118, !range !4121
  %506 = trunc i8 %505 to i1, !dbg !4490
  br i1 %506, label %513, label %507, !dbg !4491

507:                                              ; preds = %501
  %508 = bitcast i32* %93 to i8*, !dbg !4492
  call void @llvm.lifetime.start.p0i8(i64 4, i8* %508) #9, !dbg !4492
  call void @llvm.dbg.declare(metadata i32* %93, metadata !3977, metadata !DIExpression()), !dbg !4493
  %509 = load i32, i32* %42, align 4, !dbg !4494, !tbaa !3272
  %510 = call i32 @halide_error_bad_dimensions(i8* noundef null, i8* noundef getelementptr inbounds ([21 x i8], [21 x i8]* @.str.37, i64 0, i64 0), i32 noundef %509, i32 noundef 1), !dbg !4495
  store i32 %510, i32* %93, align 4, !dbg !4493, !tbaa !3272
  %511 = load i32, i32* %93, align 4, !dbg !4496, !tbaa !3272
  store i32 %511, i32* %4, align 4, !dbg !4497
  store i32 1, i32* %13, align 4
  %512 = bitcast i32* %93 to i8*, !dbg !4498
  call void @llvm.lifetime.end.p0i8(i64 4, i8* %512) #9, !dbg !4498
  br label %962

513:                                              ; preds = %501
  call void @llvm.lifetime.start.p0i8(i64 1, i8* %94) #9, !dbg !4499
  call void @llvm.dbg.declare(metadata i8* %94, metadata !3980, metadata !DIExpression()), !dbg !4500
  %514 = load i32, i32* %27, align 4, !dbg !4501, !tbaa !3272
  %515 = icmp sle i32 %514, 0, !dbg !4502
  %516 = zext i1 %515 to i8, !dbg !4500
  store i8 %516, i8* %94, align 1, !dbg !4500, !tbaa !4118
  %517 = bitcast i32* %95 to i8*, !dbg !4503
  call void @llvm.lifetime.start.p0i8(i64 4, i8* %517) #9, !dbg !4503
  call void @llvm.dbg.declare(metadata i32* %95, metadata !3981, metadata !DIExpression()), !dbg !4504
  %518 = load i32, i32* %28, align 4, !dbg !4505, !tbaa !3272
  %519 = load i32, i32* %27, align 4, !dbg !4506, !tbaa !3272
  %520 = add nsw i32 %518, %519, !dbg !4507
  store i32 %520, i32* %95, align 4, !dbg !4504, !tbaa !3272
  call void @llvm.lifetime.start.p0i8(i64 1, i8* %96) #9, !dbg !4508
  call void @llvm.dbg.declare(metadata i8* %96, metadata !3982, metadata !DIExpression()), !dbg !4509
  %521 = load i32, i32* %95, align 4, !dbg !4510, !tbaa !3272
  %522 = icmp sle i32 1, %521, !dbg !4511
  %523 = zext i1 %522 to i8, !dbg !4509
  store i8 %523, i8* %96, align 1, !dbg !4509, !tbaa !4118
  call void @llvm.lifetime.start.p0i8(i64 1, i8* %97) #9, !dbg !4512
  call void @llvm.dbg.declare(metadata i8* %97, metadata !3983, metadata !DIExpression()), !dbg !4513
  %524 = load i8, i8* %94, align 1, !dbg !4514, !tbaa !4118, !range !4121
  %525 = trunc i8 %524 to i1, !dbg !4514
  br i1 %525, label %526, label %529, !dbg !4515

526:                                              ; preds = %513
  %527 = load i8, i8* %96, align 1, !dbg !4516, !tbaa !4118, !range !4121
  %528 = trunc i8 %527 to i1, !dbg !4516
  br label %529

529:                                              ; preds = %526, %513
  %530 = phi i1 [ false, %513 ], [ %528, %526 ], !dbg !4517
  %531 = zext i1 %530 to i8, !dbg !4513
  store i8 %531, i8* %97, align 1, !dbg !4513, !tbaa !4118
  %532 = load i8, i8* %97, align 1, !dbg !4518, !tbaa !4118, !range !4121
  %533 = trunc i8 %532 to i1, !dbg !4518
  br i1 %533, label %550, label %534, !dbg !4519

534:                                              ; preds = %529
  %535 = bitcast i32* %98 to i8*, !dbg !4520
  call void @llvm.lifetime.start.p0i8(i64 4, i8* %535) #9, !dbg !4520
  call void @llvm.dbg.declare(metadata i32* %98, metadata !3984, metadata !DIExpression()), !dbg !4521
  %536 = load i32, i32* %28, align 4, !dbg !4522, !tbaa !3272
  %537 = load i32, i32* %27, align 4, !dbg !4523, !tbaa !3272
  %538 = add nsw i32 %536, %537, !dbg !4524
  store i32 %538, i32* %98, align 4, !dbg !4521, !tbaa !3272
  %539 = bitcast i32* %99 to i8*, !dbg !4525
  call void @llvm.lifetime.start.p0i8(i64 4, i8* %539) #9, !dbg !4525
  call void @llvm.dbg.declare(metadata i32* %99, metadata !3987, metadata !DIExpression()), !dbg !4526
  %540 = load i32, i32* %98, align 4, !dbg !4527, !tbaa !3272
  %541 = add nsw i32 %540, -1, !dbg !4528
  store i32 %541, i32* %99, align 4, !dbg !4526, !tbaa !3272
  %542 = bitcast i32* %100 to i8*, !dbg !4529
  call void @llvm.lifetime.start.p0i8(i64 4, i8* %542) #9, !dbg !4529
  call void @llvm.dbg.declare(metadata i32* %100, metadata !3988, metadata !DIExpression()), !dbg !4530
  %543 = load i32, i32* %27, align 4, !dbg !4531, !tbaa !3272
  %544 = load i32, i32* %99, align 4, !dbg !4532, !tbaa !3272
  %545 = call i32 @halide_error_access_out_of_bounds(i8* noundef null, i8* noundef getelementptr inbounds ([21 x i8], [21 x i8]* @.str.35, i64 0, i64 0), i32 noundef 0, i32 noundef 0, i32 noundef 0, i32 noundef %543, i32 noundef %544), !dbg !4533
  store i32 %545, i32* %100, align 4, !dbg !4530, !tbaa !3272
  %546 = load i32, i32* %100, align 4, !dbg !4534, !tbaa !3272
  store i32 %546, i32* %4, align 4, !dbg !4535
  store i32 1, i32* %13, align 4
  %547 = bitcast i32* %100 to i8*, !dbg !4536
  call void @llvm.lifetime.end.p0i8(i64 4, i8* %547) #9, !dbg !4536
  %548 = bitcast i32* %99 to i8*, !dbg !4536
  call void @llvm.lifetime.end.p0i8(i64 4, i8* %548) #9, !dbg !4536
  %549 = bitcast i32* %98 to i8*, !dbg !4536
  call void @llvm.lifetime.end.p0i8(i64 4, i8* %549) #9, !dbg !4536
  br label %960

550:                                              ; preds = %529
  call void @llvm.lifetime.start.p0i8(i64 1, i8* %101) #9, !dbg !4537
  call void @llvm.dbg.declare(metadata i8* %101, metadata !3989, metadata !DIExpression()), !dbg !4538
  %551 = load i32, i32* %28, align 4, !dbg !4539, !tbaa !3272
  %552 = icmp sle i32 0, %551, !dbg !4540
  %553 = zext i1 %552 to i8, !dbg !4538
  store i8 %553, i8* %101, align 1, !dbg !4538, !tbaa !4118
  %554 = load i8, i8* %101, align 1, !dbg !4541, !tbaa !4118, !range !4121
  %555 = trunc i8 %554 to i1, !dbg !4541
  br i1 %555, label %562, label %556, !dbg !4542

556:                                              ; preds = %550
  %557 = bitcast i32* %102 to i8*, !dbg !4543
  call void @llvm.lifetime.start.p0i8(i64 4, i8* %557) #9, !dbg !4543
  call void @llvm.dbg.declare(metadata i32* %102, metadata !3990, metadata !DIExpression()), !dbg !4544
  %558 = load i32, i32* %28, align 4, !dbg !4545, !tbaa !3272
  %559 = call i32 @halide_error_buffer_extents_negative(i8* noundef null, i8* noundef getelementptr inbounds ([21 x i8], [21 x i8]* @.str.35, i64 0, i64 0), i32 noundef 0, i32 noundef %558), !dbg !4546
  store i32 %559, i32* %102, align 4, !dbg !4544, !tbaa !3272
  %560 = load i32, i32* %102, align 4, !dbg !4547, !tbaa !3272
  store i32 %560, i32* %4, align 4, !dbg !4548
  store i32 1, i32* %13, align 4
  %561 = bitcast i32* %102 to i8*, !dbg !4549
  call void @llvm.lifetime.end.p0i8(i64 4, i8* %561) #9, !dbg !4549
  br label %959

562:                                              ; preds = %550
  call void @llvm.lifetime.start.p0i8(i64 1, i8* %103) #9, !dbg !4550
  call void @llvm.dbg.declare(metadata i8* %103, metadata !3993, metadata !DIExpression()), !dbg !4551
  %563 = load i32, i32* %36, align 4, !dbg !4552, !tbaa !3272
  %564 = icmp sle i32 0, %563, !dbg !4553
  %565 = zext i1 %564 to i8, !dbg !4551
  store i8 %565, i8* %103, align 1, !dbg !4551, !tbaa !4118
  %566 = load i8, i8* %103, align 1, !dbg !4554, !tbaa !4118, !range !4121
  %567 = trunc i8 %566 to i1, !dbg !4554
  br i1 %567, label %574, label %568, !dbg !4555

568:                                              ; preds = %562
  %569 = bitcast i32* %104 to i8*, !dbg !4556
  call void @llvm.lifetime.start.p0i8(i64 4, i8* %569) #9, !dbg !4556
  call void @llvm.dbg.declare(metadata i32* %104, metadata !3994, metadata !DIExpression()), !dbg !4557
  %570 = load i32, i32* %36, align 4, !dbg !4558, !tbaa !3272
  %571 = call i32 @halide_error_buffer_extents_negative(i8* noundef null, i8* noundef getelementptr inbounds ([21 x i8], [21 x i8]* @.str.36, i64 0, i64 0), i32 noundef 0, i32 noundef %570), !dbg !4559
  store i32 %571, i32* %104, align 4, !dbg !4557, !tbaa !3272
  %572 = load i32, i32* %104, align 4, !dbg !4560, !tbaa !3272
  store i32 %572, i32* %4, align 4, !dbg !4561
  store i32 1, i32* %13, align 4
  %573 = bitcast i32* %104 to i8*, !dbg !4562
  call void @llvm.lifetime.end.p0i8(i64 4, i8* %573) #9, !dbg !4562
  br label %958

574:                                              ; preds = %562
  call void @llvm.lifetime.start.p0i8(i64 1, i8* %105) #9, !dbg !4563
  call void @llvm.dbg.declare(metadata i8* %105, metadata !3997, metadata !DIExpression()), !dbg !4564
  %575 = load i32, i32* %43, align 4, !dbg !4565, !tbaa !3272
  %576 = load i32, i32* %35, align 4, !dbg !4566, !tbaa !3272
  %577 = icmp sle i32 %575, %576, !dbg !4567
  %578 = zext i1 %577 to i8, !dbg !4564
  store i8 %578, i8* %105, align 1, !dbg !4564, !tbaa !4118
  %579 = bitcast i32* %106 to i8*, !dbg !4568
  call void @llvm.lifetime.start.p0i8(i64 4, i8* %579) #9, !dbg !4568
  call void @llvm.dbg.declare(metadata i32* %106, metadata !3998, metadata !DIExpression()), !dbg !4569
  %580 = load i32, i32* %36, align 4, !dbg !4570, !tbaa !3272
  %581 = load i32, i32* %35, align 4, !dbg !4571, !tbaa !3272
  %582 = add nsw i32 %580, %581, !dbg !4572
  store i32 %582, i32* %106, align 4, !dbg !4569, !tbaa !3272
  %583 = bitcast i32* %107 to i8*, !dbg !4573
  call void @llvm.lifetime.start.p0i8(i64 4, i8* %583) #9, !dbg !4573
  call void @llvm.dbg.declare(metadata i32* %107, metadata !3999, metadata !DIExpression()), !dbg !4574
  %584 = load i32, i32* %44, align 4, !dbg !4575, !tbaa !3272
  %585 = load i32, i32* %43, align 4, !dbg !4576, !tbaa !3272
  %586 = add nsw i32 %584, %585, !dbg !4577
  store i32 %586, i32* %107, align 4, !dbg !4574, !tbaa !3272
  call void @llvm.lifetime.start.p0i8(i64 1, i8* %108) #9, !dbg !4578
  call void @llvm.dbg.declare(metadata i8* %108, metadata !4000, metadata !DIExpression()), !dbg !4579
  %587 = load i32, i32* %106, align 4, !dbg !4580, !tbaa !3272
  %588 = load i32, i32* %107, align 4, !dbg !4581, !tbaa !3272
  %589 = icmp sle i32 %587, %588, !dbg !4582
  %590 = zext i1 %589 to i8, !dbg !4579
  store i8 %590, i8* %108, align 1, !dbg !4579, !tbaa !4118
  call void @llvm.lifetime.start.p0i8(i64 1, i8* %109) #9, !dbg !4583
  call void @llvm.dbg.declare(metadata i8* %109, metadata !4001, metadata !DIExpression()), !dbg !4584
  %591 = load i8, i8* %105, align 1, !dbg !4585, !tbaa !4118, !range !4121
  %592 = trunc i8 %591 to i1, !dbg !4585
  br i1 %592, label %593, label %596, !dbg !4586

593:                                              ; preds = %574
  %594 = load i8, i8* %108, align 1, !dbg !4587, !tbaa !4118, !range !4121
  %595 = trunc i8 %594 to i1, !dbg !4587
  br label %596

596:                                              ; preds = %593, %574
  %597 = phi i1 [ false, %574 ], [ %595, %593 ], !dbg !4517
  %598 = zext i1 %597 to i8, !dbg !4584
  store i8 %598, i8* %109, align 1, !dbg !4584, !tbaa !4118
  %599 = load i8, i8* %109, align 1, !dbg !4588, !tbaa !4118, !range !4121
  %600 = trunc i8 %599 to i1, !dbg !4588
  br i1 %600, label %628, label %601, !dbg !4589

601:                                              ; preds = %596
  %602 = bitcast i32* %110 to i8*, !dbg !4590
  call void @llvm.lifetime.start.p0i8(i64 4, i8* %602) #9, !dbg !4590
  call void @llvm.dbg.declare(metadata i32* %110, metadata !4002, metadata !DIExpression()), !dbg !4591
  %603 = load i32, i32* %36, align 4, !dbg !4592, !tbaa !3272
  %604 = load i32, i32* %35, align 4, !dbg !4593, !tbaa !3272
  %605 = add nsw i32 %603, %604, !dbg !4594
  store i32 %605, i32* %110, align 4, !dbg !4591, !tbaa !3272
  %606 = bitcast i32* %111 to i8*, !dbg !4595
  call void @llvm.lifetime.start.p0i8(i64 4, i8* %606) #9, !dbg !4595
  call void @llvm.dbg.declare(metadata i32* %111, metadata !4005, metadata !DIExpression()), !dbg !4596
  %607 = load i32, i32* %110, align 4, !dbg !4597, !tbaa !3272
  %608 = add nsw i32 %607, -1, !dbg !4598
  store i32 %608, i32* %111, align 4, !dbg !4596, !tbaa !3272
  %609 = bitcast i32* %112 to i8*, !dbg !4599
  call void @llvm.lifetime.start.p0i8(i64 4, i8* %609) #9, !dbg !4599
  call void @llvm.dbg.declare(metadata i32* %112, metadata !4006, metadata !DIExpression()), !dbg !4600
  %610 = load i32, i32* %44, align 4, !dbg !4601, !tbaa !3272
  %611 = load i32, i32* %43, align 4, !dbg !4602, !tbaa !3272
  %612 = add nsw i32 %610, %611, !dbg !4603
  store i32 %612, i32* %112, align 4, !dbg !4600, !tbaa !3272
  %613 = bitcast i32* %113 to i8*, !dbg !4604
  call void @llvm.lifetime.start.p0i8(i64 4, i8* %613) #9, !dbg !4604
  call void @llvm.dbg.declare(metadata i32* %113, metadata !4007, metadata !DIExpression()), !dbg !4605
  %614 = load i32, i32* %112, align 4, !dbg !4606, !tbaa !3272
  %615 = add nsw i32 %614, -1, !dbg !4607
  store i32 %615, i32* %113, align 4, !dbg !4605, !tbaa !3272
  %616 = bitcast i32* %114 to i8*, !dbg !4608
  call void @llvm.lifetime.start.p0i8(i64 4, i8* %616) #9, !dbg !4608
  call void @llvm.dbg.declare(metadata i32* %114, metadata !4008, metadata !DIExpression()), !dbg !4609
  %617 = load i32, i32* %35, align 4, !dbg !4610, !tbaa !3272
  %618 = load i32, i32* %111, align 4, !dbg !4611, !tbaa !3272
  %619 = load i32, i32* %43, align 4, !dbg !4612, !tbaa !3272
  %620 = load i32, i32* %113, align 4, !dbg !4613, !tbaa !3272
  %621 = call i32 @halide_error_access_out_of_bounds(i8* noundef null, i8* noundef getelementptr inbounds ([21 x i8], [21 x i8]* @.str.37, i64 0, i64 0), i32 noundef 0, i32 noundef %617, i32 noundef %618, i32 noundef %619, i32 noundef %620), !dbg !4614
  store i32 %621, i32* %114, align 4, !dbg !4609, !tbaa !3272
  %622 = load i32, i32* %114, align 4, !dbg !4615, !tbaa !3272
  store i32 %622, i32* %4, align 4, !dbg !4616
  store i32 1, i32* %13, align 4
  %623 = bitcast i32* %114 to i8*, !dbg !4617
  call void @llvm.lifetime.end.p0i8(i64 4, i8* %623) #9, !dbg !4617
  %624 = bitcast i32* %113 to i8*, !dbg !4617
  call void @llvm.lifetime.end.p0i8(i64 4, i8* %624) #9, !dbg !4617
  %625 = bitcast i32* %112 to i8*, !dbg !4617
  call void @llvm.lifetime.end.p0i8(i64 4, i8* %625) #9, !dbg !4617
  %626 = bitcast i32* %111 to i8*, !dbg !4617
  call void @llvm.lifetime.end.p0i8(i64 4, i8* %626) #9, !dbg !4617
  %627 = bitcast i32* %110 to i8*, !dbg !4617
  call void @llvm.lifetime.end.p0i8(i64 4, i8* %627) #9, !dbg !4617
  br label %955

628:                                              ; preds = %596
  call void @llvm.lifetime.start.p0i8(i64 1, i8* %115) #9, !dbg !4618
  call void @llvm.dbg.declare(metadata i8* %115, metadata !4009, metadata !DIExpression()), !dbg !4619
  %629 = load i32, i32* %44, align 4, !dbg !4620, !tbaa !3272
  %630 = icmp sle i32 0, %629, !dbg !4621
  %631 = zext i1 %630 to i8, !dbg !4619
  store i8 %631, i8* %115, align 1, !dbg !4619, !tbaa !4118
  %632 = load i8, i8* %115, align 1, !dbg !4622, !tbaa !4118, !range !4121
  %633 = trunc i8 %632 to i1, !dbg !4622
  br i1 %633, label %640, label %634, !dbg !4623

634:                                              ; preds = %628
  %635 = bitcast i32* %116 to i8*, !dbg !4624
  call void @llvm.lifetime.start.p0i8(i64 4, i8* %635) #9, !dbg !4624
  call void @llvm.dbg.declare(metadata i32* %116, metadata !4010, metadata !DIExpression()), !dbg !4625
  %636 = load i32, i32* %44, align 4, !dbg !4626, !tbaa !3272
  %637 = call i32 @halide_error_buffer_extents_negative(i8* noundef null, i8* noundef getelementptr inbounds ([21 x i8], [21 x i8]* @.str.37, i64 0, i64 0), i32 noundef 0, i32 noundef %636), !dbg !4627
  store i32 %637, i32* %116, align 4, !dbg !4625, !tbaa !3272
  %638 = load i32, i32* %116, align 4, !dbg !4628, !tbaa !3272
  store i32 %638, i32* %4, align 4, !dbg !4629
  store i32 1, i32* %13, align 4
  %639 = bitcast i32* %116 to i8*, !dbg !4630
  call void @llvm.lifetime.end.p0i8(i64 4, i8* %639) #9, !dbg !4630
  br label %954

640:                                              ; preds = %628
  call void @llvm.lifetime.start.p0i8(i64 1, i8* %117) #9, !dbg !4631
  call void @llvm.dbg.declare(metadata i8* %117, metadata !4013, metadata !DIExpression()), !dbg !4632
  %641 = load i32, i32* %29, align 4, !dbg !4633, !tbaa !3272
  %642 = icmp eq i32 %641, 1, !dbg !4634
  %643 = zext i1 %642 to i8, !dbg !4632
  store i8 %643, i8* %117, align 1, !dbg !4632, !tbaa !4118
  %644 = load i8, i8* %117, align 1, !dbg !4635, !tbaa !4118, !range !4121
  %645 = trunc i8 %644 to i1, !dbg !4635
  br i1 %645, label %652, label %646, !dbg !4636

646:                                              ; preds = %640
  %647 = bitcast i32* %118 to i8*, !dbg !4637
  call void @llvm.lifetime.start.p0i8(i64 4, i8* %647) #9, !dbg !4637
  call void @llvm.dbg.declare(metadata i32* %118, metadata !4014, metadata !DIExpression()), !dbg !4638
  %648 = load i32, i32* %29, align 4, !dbg !4639, !tbaa !3272
  %649 = call i32 @halide_error_constraint_violated(i8* noundef null, i8* noundef getelementptr inbounds ([16 x i8], [16 x i8]* @.str.38, i64 0, i64 0), i32 noundef %648, i8* noundef getelementptr inbounds ([2 x i8], [2 x i8]* @.str.39, i64 0, i64 0), i32 noundef 1), !dbg !4640
  store i32 %649, i32* %118, align 4, !dbg !4638, !tbaa !3272
  %650 = load i32, i32* %118, align 4, !dbg !4641, !tbaa !3272
  store i32 %650, i32* %4, align 4, !dbg !4642
  store i32 1, i32* %13, align 4
  %651 = bitcast i32* %118 to i8*, !dbg !4643
  call void @llvm.lifetime.end.p0i8(i64 4, i8* %651) #9, !dbg !4643
  br label %953

652:                                              ; preds = %640
  call void @llvm.lifetime.start.p0i8(i64 1, i8* %119) #9, !dbg !4644
  call void @llvm.dbg.declare(metadata i8* %119, metadata !4017, metadata !DIExpression()), !dbg !4645
  %653 = load i32, i32* %37, align 4, !dbg !4646, !tbaa !3272
  %654 = icmp eq i32 %653, 1, !dbg !4647
  %655 = zext i1 %654 to i8, !dbg !4645
  store i8 %655, i8* %119, align 1, !dbg !4645, !tbaa !4118
  %656 = load i8, i8* %119, align 1, !dbg !4648, !tbaa !4118, !range !4121
  %657 = trunc i8 %656 to i1, !dbg !4648
  br i1 %657, label %664, label %658, !dbg !4649

658:                                              ; preds = %652
  %659 = bitcast i32* %120 to i8*, !dbg !4650
  call void @llvm.lifetime.start.p0i8(i64 4, i8* %659) #9, !dbg !4650
  call void @llvm.dbg.declare(metadata i32* %120, metadata !4018, metadata !DIExpression()), !dbg !4651
  %660 = load i32, i32* %37, align 4, !dbg !4652, !tbaa !3272
  %661 = call i32 @halide_error_constraint_violated(i8* noundef null, i8* noundef getelementptr inbounds ([17 x i8], [17 x i8]* @.str.40, i64 0, i64 0), i32 noundef %660, i8* noundef getelementptr inbounds ([2 x i8], [2 x i8]* @.str.39, i64 0, i64 0), i32 noundef 1), !dbg !4653
  store i32 %661, i32* %120, align 4, !dbg !4651, !tbaa !3272
  %662 = load i32, i32* %120, align 4, !dbg !4654, !tbaa !3272
  store i32 %662, i32* %4, align 4, !dbg !4655
  store i32 1, i32* %13, align 4
  %663 = bitcast i32* %120 to i8*, !dbg !4656
  call void @llvm.lifetime.end.p0i8(i64 4, i8* %663) #9, !dbg !4656
  br label %952

664:                                              ; preds = %652
  call void @llvm.lifetime.start.p0i8(i64 1, i8* %121) #9, !dbg !4657
  call void @llvm.dbg.declare(metadata i8* %121, metadata !4021, metadata !DIExpression()), !dbg !4658
  %665 = load i32, i32* %45, align 4, !dbg !4659, !tbaa !3272
  %666 = icmp eq i32 %665, 1, !dbg !4660
  %667 = zext i1 %666 to i8, !dbg !4658
  store i8 %667, i8* %121, align 1, !dbg !4658, !tbaa !4118
  %668 = load i8, i8* %121, align 1, !dbg !4661, !tbaa !4118, !range !4121
  %669 = trunc i8 %668 to i1, !dbg !4661
  br i1 %669, label %676, label %670, !dbg !4662

670:                                              ; preds = %664
  %671 = bitcast i32* %122 to i8*, !dbg !4663
  call void @llvm.lifetime.start.p0i8(i64 4, i8* %671) #9, !dbg !4663
  call void @llvm.dbg.declare(metadata i32* %122, metadata !4022, metadata !DIExpression()), !dbg !4664
  %672 = load i32, i32* %45, align 4, !dbg !4665, !tbaa !3272
  %673 = call i32 @halide_error_constraint_violated(i8* noundef null, i8* noundef getelementptr inbounds ([17 x i8], [17 x i8]* @.str.41, i64 0, i64 0), i32 noundef %672, i8* noundef getelementptr inbounds ([2 x i8], [2 x i8]* @.str.39, i64 0, i64 0), i32 noundef 1), !dbg !4666
  store i32 %673, i32* %122, align 4, !dbg !4664, !tbaa !3272
  %674 = load i32, i32* %122, align 4, !dbg !4667, !tbaa !3272
  store i32 %674, i32* %4, align 4, !dbg !4668
  store i32 1, i32* %13, align 4
  %675 = bitcast i32* %122 to i8*, !dbg !4669
  call void @llvm.lifetime.end.p0i8(i64 4, i8* %675) #9, !dbg !4669
  br label %951

676:                                              ; preds = %664
  %677 = bitcast i64* %123 to i8*, !dbg !4670
  call void @llvm.lifetime.start.p0i8(i64 8, i8* %677) #9, !dbg !4670
  call void @llvm.dbg.declare(metadata i64* %123, metadata !4025, metadata !DIExpression()), !dbg !4671
  %678 = load i32, i32* %28, align 4, !dbg !4672, !tbaa !3272
  %679 = sext i32 %678 to i64, !dbg !4673
  store i64 %679, i64* %123, align 8, !dbg !4671, !tbaa !3670
  %680 = bitcast i64* %124 to i8*, !dbg !4674
  call void @llvm.lifetime.start.p0i8(i64 8, i8* %680) #9, !dbg !4674
  call void @llvm.dbg.declare(metadata i64* %124, metadata !4026, metadata !DIExpression()), !dbg !4675
  store i64 2147483647, i64* %124, align 8, !dbg !4675, !tbaa !3670
  call void @llvm.lifetime.start.p0i8(i64 1, i8* %125) #9, !dbg !4676
  call void @llvm.dbg.declare(metadata i8* %125, metadata !4027, metadata !DIExpression()), !dbg !4677
  %681 = load i64, i64* %123, align 8, !dbg !4678, !tbaa !3670
  %682 = load i64, i64* %124, align 8, !dbg !4679, !tbaa !3670
  %683 = icmp ule i64 %681, %682, !dbg !4680
  %684 = zext i1 %683 to i8, !dbg !4677
  store i8 %684, i8* %125, align 1, !dbg !4677, !tbaa !4118
  %685 = load i8, i8* %125, align 1, !dbg !4681, !tbaa !4118, !range !4121
  %686 = trunc i8 %685 to i1, !dbg !4681
  br i1 %686, label %700, label %687, !dbg !4682

687:                                              ; preds = %676
  %688 = bitcast i64* %126 to i8*, !dbg !4683
  call void @llvm.lifetime.start.p0i8(i64 8, i8* %688) #9, !dbg !4683
  call void @llvm.dbg.declare(metadata i64* %126, metadata !4028, metadata !DIExpression()), !dbg !4684
  %689 = load i32, i32* %28, align 4, !dbg !4685, !tbaa !3272
  %690 = sext i32 %689 to i64, !dbg !4686
  store i64 %690, i64* %126, align 8, !dbg !4684, !tbaa !3670
  %691 = bitcast i64* %127 to i8*, !dbg !4687
  call void @llvm.lifetime.start.p0i8(i64 8, i8* %691) #9, !dbg !4687
  call void @llvm.dbg.declare(metadata i64* %127, metadata !4031, metadata !DIExpression()), !dbg !4688
  store i64 2147483647, i64* %127, align 8, !dbg !4688, !tbaa !3670
  %692 = bitcast i32* %128 to i8*, !dbg !4689
  call void @llvm.lifetime.start.p0i8(i64 4, i8* %692) #9, !dbg !4689
  call void @llvm.dbg.declare(metadata i32* %128, metadata !4032, metadata !DIExpression()), !dbg !4690
  %693 = load i64, i64* %126, align 8, !dbg !4691, !tbaa !3670
  %694 = load i64, i64* %127, align 8, !dbg !4692, !tbaa !3670
  %695 = call i32 @halide_error_buffer_allocation_too_large(i8* noundef null, i8* noundef getelementptr inbounds ([7 x i8], [7 x i8]* @.str.34, i64 0, i64 0), i64 noundef %693, i64 noundef %694), !dbg !4693
  store i32 %695, i32* %128, align 4, !dbg !4690, !tbaa !3272
  %696 = load i32, i32* %128, align 4, !dbg !4694, !tbaa !3272
  store i32 %696, i32* %4, align 4, !dbg !4695
  store i32 1, i32* %13, align 4
  %697 = bitcast i32* %128 to i8*, !dbg !4696
  call void @llvm.lifetime.end.p0i8(i64 4, i8* %697) #9, !dbg !4696
  %698 = bitcast i64* %127 to i8*, !dbg !4696
  call void @llvm.lifetime.end.p0i8(i64 8, i8* %698) #9, !dbg !4696
  %699 = bitcast i64* %126 to i8*, !dbg !4696
  call void @llvm.lifetime.end.p0i8(i64 8, i8* %699) #9, !dbg !4696
  br label %948

700:                                              ; preds = %676
  %701 = bitcast i64* %129 to i8*, !dbg !4697
  call void @llvm.lifetime.start.p0i8(i64 8, i8* %701) #9, !dbg !4697
  call void @llvm.dbg.declare(metadata i64* %129, metadata !4033, metadata !DIExpression()), !dbg !4698
  %702 = load i32, i32* %36, align 4, !dbg !4699, !tbaa !3272
  %703 = sext i32 %702 to i64, !dbg !4700
  store i64 %703, i64* %129, align 8, !dbg !4698, !tbaa !3670
  %704 = bitcast i64* %130 to i8*, !dbg !4701
  call void @llvm.lifetime.start.p0i8(i64 8, i8* %704) #9, !dbg !4701
  call void @llvm.dbg.declare(metadata i64* %130, metadata !4034, metadata !DIExpression()), !dbg !4702
  store i64 2147483647, i64* %130, align 8, !dbg !4702, !tbaa !3670
  call void @llvm.lifetime.start.p0i8(i64 1, i8* %131) #9, !dbg !4703
  call void @llvm.dbg.declare(metadata i8* %131, metadata !4035, metadata !DIExpression()), !dbg !4704
  %705 = load i64, i64* %129, align 8, !dbg !4705, !tbaa !3670
  %706 = load i64, i64* %130, align 8, !dbg !4706, !tbaa !3670
  %707 = icmp ule i64 %705, %706, !dbg !4707
  %708 = zext i1 %707 to i8, !dbg !4704
  store i8 %708, i8* %131, align 1, !dbg !4704, !tbaa !4118
  %709 = load i8, i8* %131, align 1, !dbg !4708, !tbaa !4118, !range !4121
  %710 = trunc i8 %709 to i1, !dbg !4708
  br i1 %710, label %724, label %711, !dbg !4709

711:                                              ; preds = %700
  %712 = bitcast i64* %132 to i8*, !dbg !4710
  call void @llvm.lifetime.start.p0i8(i64 8, i8* %712) #9, !dbg !4710
  call void @llvm.dbg.declare(metadata i64* %132, metadata !4036, metadata !DIExpression()), !dbg !4711
  %713 = load i32, i32* %36, align 4, !dbg !4712, !tbaa !3272
  %714 = sext i32 %713 to i64, !dbg !4713
  store i64 %714, i64* %132, align 8, !dbg !4711, !tbaa !3670
  %715 = bitcast i64* %133 to i8*, !dbg !4714
  call void @llvm.lifetime.start.p0i8(i64 8, i8* %715) #9, !dbg !4714
  call void @llvm.dbg.declare(metadata i64* %133, metadata !4039, metadata !DIExpression()), !dbg !4715
  store i64 2147483647, i64* %133, align 8, !dbg !4715, !tbaa !3670
  %716 = bitcast i32* %134 to i8*, !dbg !4716
  call void @llvm.lifetime.start.p0i8(i64 4, i8* %716) #9, !dbg !4716
  call void @llvm.dbg.declare(metadata i32* %134, metadata !4040, metadata !DIExpression()), !dbg !4717
  %717 = load i64, i64* %132, align 8, !dbg !4718, !tbaa !3670
  %718 = load i64, i64* %133, align 8, !dbg !4719, !tbaa !3670
  %719 = call i32 @halide_error_buffer_allocation_too_large(i8* noundef null, i8* noundef getelementptr inbounds ([8 x i8], [8 x i8]* @.str.33, i64 0, i64 0), i64 noundef %717, i64 noundef %718), !dbg !4720
  store i32 %719, i32* %134, align 4, !dbg !4717, !tbaa !3272
  %720 = load i32, i32* %134, align 4, !dbg !4721, !tbaa !3272
  store i32 %720, i32* %4, align 4, !dbg !4722
  store i32 1, i32* %13, align 4
  %721 = bitcast i32* %134 to i8*, !dbg !4723
  call void @llvm.lifetime.end.p0i8(i64 4, i8* %721) #9, !dbg !4723
  %722 = bitcast i64* %133 to i8*, !dbg !4723
  call void @llvm.lifetime.end.p0i8(i64 8, i8* %722) #9, !dbg !4723
  %723 = bitcast i64* %132 to i8*, !dbg !4723
  call void @llvm.lifetime.end.p0i8(i64 8, i8* %723) #9, !dbg !4723
  br label %945

724:                                              ; preds = %700
  %725 = bitcast i64* %135 to i8*, !dbg !4724
  call void @llvm.lifetime.start.p0i8(i64 8, i8* %725) #9, !dbg !4724
  call void @llvm.dbg.declare(metadata i64* %135, metadata !4041, metadata !DIExpression()), !dbg !4725
  %726 = load i32, i32* %44, align 4, !dbg !4726, !tbaa !3272
  %727 = sext i32 %726 to i64, !dbg !4727
  store i64 %727, i64* %135, align 8, !dbg !4725, !tbaa !3670
  %728 = bitcast i64* %136 to i8*, !dbg !4728
  call void @llvm.lifetime.start.p0i8(i64 8, i8* %728) #9, !dbg !4728
  call void @llvm.dbg.declare(metadata i64* %136, metadata !4042, metadata !DIExpression()), !dbg !4729
  store i64 2147483647, i64* %136, align 8, !dbg !4729, !tbaa !3670
  call void @llvm.lifetime.start.p0i8(i64 1, i8* %137) #9, !dbg !4730
  call void @llvm.dbg.declare(metadata i8* %137, metadata !4043, metadata !DIExpression()), !dbg !4731
  %729 = load i64, i64* %135, align 8, !dbg !4732, !tbaa !3670
  %730 = load i64, i64* %136, align 8, !dbg !4733, !tbaa !3670
  %731 = icmp ule i64 %729, %730, !dbg !4734
  %732 = zext i1 %731 to i8, !dbg !4731
  store i8 %732, i8* %137, align 1, !dbg !4731, !tbaa !4118
  %733 = load i8, i8* %137, align 1, !dbg !4735, !tbaa !4118, !range !4121
  %734 = trunc i8 %733 to i1, !dbg !4735
  br i1 %734, label %748, label %735, !dbg !4736

735:                                              ; preds = %724
  %736 = bitcast i64* %138 to i8*, !dbg !4737
  call void @llvm.lifetime.start.p0i8(i64 8, i8* %736) #9, !dbg !4737
  call void @llvm.dbg.declare(metadata i64* %138, metadata !4044, metadata !DIExpression()), !dbg !4738
  %737 = load i32, i32* %44, align 4, !dbg !4739, !tbaa !3272
  %738 = sext i32 %737 to i64, !dbg !4740
  store i64 %738, i64* %138, align 8, !dbg !4738, !tbaa !3670
  %739 = bitcast i64* %139 to i8*, !dbg !4741
  call void @llvm.lifetime.start.p0i8(i64 8, i8* %739) #9, !dbg !4741
  call void @llvm.dbg.declare(metadata i64* %139, metadata !4047, metadata !DIExpression()), !dbg !4742
  store i64 2147483647, i64* %139, align 8, !dbg !4742, !tbaa !3670
  %740 = bitcast i32* %140 to i8*, !dbg !4743
  call void @llvm.lifetime.start.p0i8(i64 4, i8* %740) #9, !dbg !4743
  call void @llvm.dbg.declare(metadata i32* %140, metadata !4048, metadata !DIExpression()), !dbg !4744
  %741 = load i64, i64* %138, align 8, !dbg !4745, !tbaa !3670
  %742 = load i64, i64* %139, align 8, !dbg !4746, !tbaa !3670
  %743 = call i32 @halide_error_buffer_allocation_too_large(i8* noundef null, i8* noundef getelementptr inbounds ([8 x i8], [8 x i8]* @.str.32, i64 0, i64 0), i64 noundef %741, i64 noundef %742), !dbg !4747
  store i32 %743, i32* %140, align 4, !dbg !4744, !tbaa !3272
  %744 = load i32, i32* %140, align 4, !dbg !4748, !tbaa !3272
  store i32 %744, i32* %4, align 4, !dbg !4749
  store i32 1, i32* %13, align 4
  %745 = bitcast i32* %140 to i8*, !dbg !4750
  call void @llvm.lifetime.end.p0i8(i64 4, i8* %745) #9, !dbg !4750
  %746 = bitcast i64* %139 to i8*, !dbg !4750
  call void @llvm.lifetime.end.p0i8(i64 8, i8* %746) #9, !dbg !4750
  %747 = bitcast i64* %138 to i8*, !dbg !4750
  call void @llvm.lifetime.end.p0i8(i64 8, i8* %747) #9, !dbg !4750
  br label %942

748:                                              ; preds = %724
  call void @llvm.lifetime.start.p0i8(i64 1, i8* %141) #9, !dbg !4751
  call void @llvm.dbg.declare(metadata i8* %141, metadata !4049, metadata !DIExpression()), !dbg !4752
  %749 = load i8, i8* %25, align 1, !dbg !4753, !tbaa !4118, !range !4121
  %750 = trunc i8 %749 to i1, !dbg !4753
  %751 = xor i1 %750, true, !dbg !4754
  %752 = zext i1 %751 to i8, !dbg !4752
  store i8 %752, i8* %141, align 1, !dbg !4752, !tbaa !4118
  %753 = load i8, i8* %141, align 1, !dbg !4755, !tbaa !4118, !range !4121
  %754 = trunc i8 %753 to i1, !dbg !4755
  br i1 %754, label %760, label %755, !dbg !4756

755:                                              ; preds = %748
  %756 = bitcast i32* %142 to i8*, !dbg !4757
  call void @llvm.lifetime.start.p0i8(i64 4, i8* %756) #9, !dbg !4757
  call void @llvm.dbg.declare(metadata i32* %142, metadata !4050, metadata !DIExpression()), !dbg !4758
  %757 = call i32 @halide_error_device_dirty_with_no_device_support(i8* noundef null, i8* noundef getelementptr inbounds ([21 x i8], [21 x i8]* @.str.35, i64 0, i64 0)), !dbg !4759
  store i32 %757, i32* %142, align 4, !dbg !4758, !tbaa !3272
  %758 = load i32, i32* %142, align 4, !dbg !4760, !tbaa !3272
  store i32 %758, i32* %4, align 4, !dbg !4761
  store i32 1, i32* %13, align 4
  %759 = bitcast i32* %142 to i8*, !dbg !4762
  call void @llvm.lifetime.end.p0i8(i64 4, i8* %759) #9, !dbg !4762
  br label %941

760:                                              ; preds = %748
  call void @llvm.lifetime.start.p0i8(i64 1, i8* %143) #9, !dbg !4763
  call void @llvm.dbg.declare(metadata i8* %143, metadata !4053, metadata !DIExpression()), !dbg !4764
  %761 = load i8, i8* %33, align 1, !dbg !4765, !tbaa !4118, !range !4121
  %762 = trunc i8 %761 to i1, !dbg !4765
  %763 = xor i1 %762, true, !dbg !4766
  %764 = zext i1 %763 to i8, !dbg !4764
  store i8 %764, i8* %143, align 1, !dbg !4764, !tbaa !4118
  %765 = load i8, i8* %143, align 1, !dbg !4767, !tbaa !4118, !range !4121
  %766 = trunc i8 %765 to i1, !dbg !4767
  br i1 %766, label %772, label %767, !dbg !4768

767:                                              ; preds = %760
  %768 = bitcast i32* %144 to i8*, !dbg !4769
  call void @llvm.lifetime.start.p0i8(i64 4, i8* %768) #9, !dbg !4769
  call void @llvm.dbg.declare(metadata i32* %144, metadata !4054, metadata !DIExpression()), !dbg !4770
  %769 = call i32 @halide_error_device_dirty_with_no_device_support(i8* noundef null, i8* noundef getelementptr inbounds ([21 x i8], [21 x i8]* @.str.36, i64 0, i64 0)), !dbg !4771
  store i32 %769, i32* %144, align 4, !dbg !4770, !tbaa !3272
  %770 = load i32, i32* %144, align 4, !dbg !4772, !tbaa !3272
  store i32 %770, i32* %4, align 4, !dbg !4773
  store i32 1, i32* %13, align 4
  %771 = bitcast i32* %144 to i8*, !dbg !4774
  call void @llvm.lifetime.end.p0i8(i64 4, i8* %771) #9, !dbg !4774
  br label %940

772:                                              ; preds = %760
  call void @llvm.lifetime.start.p0i8(i64 1, i8* %145) #9, !dbg !4775
  call void @llvm.dbg.declare(metadata i8* %145, metadata !4057, metadata !DIExpression()), !dbg !4776
  %773 = load i8, i8* %41, align 1, !dbg !4777, !tbaa !4118, !range !4121
  %774 = trunc i8 %773 to i1, !dbg !4777
  %775 = xor i1 %774, true, !dbg !4778
  %776 = zext i1 %775 to i8, !dbg !4776
  store i8 %776, i8* %145, align 1, !dbg !4776, !tbaa !4118
  %777 = load i8, i8* %145, align 1, !dbg !4779, !tbaa !4118, !range !4121
  %778 = trunc i8 %777 to i1, !dbg !4779
  br i1 %778, label %784, label %779, !dbg !4780

779:                                              ; preds = %772
  %780 = bitcast i32* %146 to i8*, !dbg !4781
  call void @llvm.lifetime.start.p0i8(i64 4, i8* %780) #9, !dbg !4781
  call void @llvm.dbg.declare(metadata i32* %146, metadata !4058, metadata !DIExpression()), !dbg !4782
  %781 = call i32 @halide_error_device_dirty_with_no_device_support(i8* noundef null, i8* noundef getelementptr inbounds ([21 x i8], [21 x i8]* @.str.37, i64 0, i64 0)), !dbg !4783
  store i32 %781, i32* %146, align 4, !dbg !4782, !tbaa !3272
  %782 = load i32, i32* %146, align 4, !dbg !4784, !tbaa !3272
  store i32 %782, i32* %4, align 4, !dbg !4785
  store i32 1, i32* %13, align 4
  %783 = bitcast i32* %146 to i8*, !dbg !4786
  call void @llvm.lifetime.end.p0i8(i64 4, i8* %783) #9, !dbg !4786
  br label %939

784:                                              ; preds = %772
  %785 = bitcast i8** %147 to i8*, !dbg !4787
  call void @llvm.lifetime.start.p0i8(i64 8, i8* %785) #9, !dbg !4787
  call void @llvm.dbg.declare(metadata i8** %147, metadata !4061, metadata !DIExpression()), !dbg !4788
  store i8* null, i8** %147, align 8, !dbg !4788, !tbaa !3266
  call void @llvm.lifetime.start.p0i8(i64 1, i8* %148) #9, !dbg !4789
  call void @llvm.dbg.declare(metadata i8* %148, metadata !4062, metadata !DIExpression()), !dbg !4790
  %786 = load i8*, i8** %23, align 8, !dbg !4791, !tbaa !3266
  %787 = load i8*, i8** %147, align 8, !dbg !4792, !tbaa !3266
  %788 = icmp ne i8* %786, %787, !dbg !4793
  %789 = zext i1 %788 to i8, !dbg !4790
  store i8 %789, i8* %148, align 1, !dbg !4790, !tbaa !4118
  %790 = load i8, i8* %148, align 1, !dbg !4794, !tbaa !4118, !range !4121
  %791 = trunc i8 %790 to i1, !dbg !4794
  br i1 %791, label %797, label %792, !dbg !4795

792:                                              ; preds = %784
  %793 = bitcast i32* %149 to i8*, !dbg !4796
  call void @llvm.lifetime.start.p0i8(i64 4, i8* %793) #9, !dbg !4796
  call void @llvm.dbg.declare(metadata i32* %149, metadata !4063, metadata !DIExpression()), !dbg !4797
  %794 = call i32 @halide_error_host_is_null(i8* noundef null, i8* noundef getelementptr inbounds ([21 x i8], [21 x i8]* @.str.35, i64 0, i64 0)), !dbg !4798
  store i32 %794, i32* %149, align 4, !dbg !4797, !tbaa !3272
  %795 = load i32, i32* %149, align 4, !dbg !4799, !tbaa !3272
  store i32 %795, i32* %4, align 4, !dbg !4800
  store i32 1, i32* %13, align 4
  %796 = bitcast i32* %149 to i8*, !dbg !4801
  call void @llvm.lifetime.end.p0i8(i64 4, i8* %796) #9, !dbg !4801
  br label %937

797:                                              ; preds = %784
  %798 = bitcast i8** %150 to i8*, !dbg !4802
  call void @llvm.lifetime.start.p0i8(i64 8, i8* %798) #9, !dbg !4802
  call void @llvm.dbg.declare(metadata i8** %150, metadata !4066, metadata !DIExpression()), !dbg !4803
  store i8* null, i8** %150, align 8, !dbg !4803, !tbaa !3266
  call void @llvm.lifetime.start.p0i8(i64 1, i8* %151) #9, !dbg !4804
  call void @llvm.dbg.declare(metadata i8* %151, metadata !4067, metadata !DIExpression()), !dbg !4805
  %799 = load i8*, i8** %31, align 8, !dbg !4806, !tbaa !3266
  %800 = load i8*, i8** %150, align 8, !dbg !4807, !tbaa !3266
  %801 = icmp ne i8* %799, %800, !dbg !4808
  %802 = zext i1 %801 to i8, !dbg !4805
  store i8 %802, i8* %151, align 1, !dbg !4805, !tbaa !4118
  %803 = load i8, i8* %151, align 1, !dbg !4809, !tbaa !4118, !range !4121
  %804 = trunc i8 %803 to i1, !dbg !4809
  br i1 %804, label %810, label %805, !dbg !4810

805:                                              ; preds = %797
  %806 = bitcast i32* %152 to i8*, !dbg !4811
  call void @llvm.lifetime.start.p0i8(i64 4, i8* %806) #9, !dbg !4811
  call void @llvm.dbg.declare(metadata i32* %152, metadata !4068, metadata !DIExpression()), !dbg !4812
  %807 = call i32 @halide_error_host_is_null(i8* noundef null, i8* noundef getelementptr inbounds ([21 x i8], [21 x i8]* @.str.36, i64 0, i64 0)), !dbg !4813
  store i32 %807, i32* %152, align 4, !dbg !4812, !tbaa !3272
  %808 = load i32, i32* %152, align 4, !dbg !4814, !tbaa !3272
  store i32 %808, i32* %4, align 4, !dbg !4815
  store i32 1, i32* %13, align 4
  %809 = bitcast i32* %152 to i8*, !dbg !4816
  call void @llvm.lifetime.end.p0i8(i64 4, i8* %809) #9, !dbg !4816
  br label %935

810:                                              ; preds = %797
  %811 = bitcast i8** %153 to i8*, !dbg !4817
  call void @llvm.lifetime.start.p0i8(i64 8, i8* %811) #9, !dbg !4817
  call void @llvm.dbg.declare(metadata i8** %153, metadata !4071, metadata !DIExpression()), !dbg !4818
  store i8* null, i8** %153, align 8, !dbg !4818, !tbaa !3266
  call void @llvm.lifetime.start.p0i8(i64 1, i8* %154) #9, !dbg !4819
  call void @llvm.dbg.declare(metadata i8* %154, metadata !4072, metadata !DIExpression()), !dbg !4820
  %812 = load i8*, i8** %39, align 8, !dbg !4821, !tbaa !3266
  %813 = load i8*, i8** %153, align 8, !dbg !4822, !tbaa !3266
  %814 = icmp ne i8* %812, %813, !dbg !4823
  %815 = zext i1 %814 to i8, !dbg !4820
  store i8 %815, i8* %154, align 1, !dbg !4820, !tbaa !4118
  %816 = load i8, i8* %154, align 1, !dbg !4824, !tbaa !4118, !range !4121
  %817 = trunc i8 %816 to i1, !dbg !4824
  br i1 %817, label %823, label %818, !dbg !4825

818:                                              ; preds = %810
  %819 = bitcast i32* %155 to i8*, !dbg !4826
  call void @llvm.lifetime.start.p0i8(i64 4, i8* %819) #9, !dbg !4826
  call void @llvm.dbg.declare(metadata i32* %155, metadata !4073, metadata !DIExpression()), !dbg !4827
  %820 = call i32 @halide_error_host_is_null(i8* noundef null, i8* noundef getelementptr inbounds ([21 x i8], [21 x i8]* @.str.37, i64 0, i64 0)), !dbg !4828
  store i32 %820, i32* %155, align 4, !dbg !4827, !tbaa !3272
  %821 = load i32, i32* %155, align 4, !dbg !4829, !tbaa !3272
  store i32 %821, i32* %4, align 4, !dbg !4830
  store i32 1, i32* %13, align 4
  %822 = bitcast i32* %155 to i8*, !dbg !4831
  call void @llvm.lifetime.end.p0i8(i64 4, i8* %822) #9, !dbg !4831
  br label %933

823:                                              ; preds = %810
  call void @llvm.lifetime.start.p0i8(i64 1, i8* %156) #9, !dbg !4832
  call void @llvm.dbg.declare(metadata i8* %156, metadata !4076, metadata !DIExpression()), !dbg !4833
  %824 = load i32, i32* %27, align 4, !dbg !4834, !tbaa !3272
  %825 = icmp sle i32 0, %824, !dbg !4835
  %826 = zext i1 %825 to i8, !dbg !4833
  store i8 %826, i8* %156, align 1, !dbg !4833, !tbaa !4118
  %827 = bitcast i32* %157 to i8*, !dbg !4836
  call void @llvm.lifetime.start.p0i8(i64 4, i8* %827) #9, !dbg !4836
  call void @llvm.dbg.declare(metadata i32* %157, metadata !4077, metadata !DIExpression()), !dbg !4837
  %828 = load i32, i32* %28, align 4, !dbg !4838, !tbaa !3272
  %829 = load i32, i32* %27, align 4, !dbg !4839, !tbaa !3272
  %830 = add nsw i32 %828, %829, !dbg !4840
  store i32 %830, i32* %157, align 4, !dbg !4837, !tbaa !3272
  call void @llvm.lifetime.start.p0i8(i64 1, i8* %158) #9, !dbg !4841
  call void @llvm.dbg.declare(metadata i8* %158, metadata !4078, metadata !DIExpression()), !dbg !4842
  %831 = load i32, i32* %157, align 4, !dbg !4843, !tbaa !3272
  %832 = icmp sle i32 %831, 1, !dbg !4844
  %833 = zext i1 %832 to i8, !dbg !4842
  store i8 %833, i8* %158, align 1, !dbg !4842, !tbaa !4118
  call void @llvm.lifetime.start.p0i8(i64 1, i8* %159) #9, !dbg !4845
  call void @llvm.dbg.declare(metadata i8* %159, metadata !4079, metadata !DIExpression()), !dbg !4846
  %834 = load i8, i8* %156, align 1, !dbg !4847, !tbaa !4118, !range !4121
  %835 = trunc i8 %834 to i1, !dbg !4847
  br i1 %835, label %836, label %839, !dbg !4848

836:                                              ; preds = %823
  %837 = load i8, i8* %158, align 1, !dbg !4849, !tbaa !4118, !range !4121
  %838 = trunc i8 %837 to i1, !dbg !4849
  br label %839

839:                                              ; preds = %836, %823
  %840 = phi i1 [ false, %823 ], [ %838, %836 ], !dbg !4517
  %841 = zext i1 %840 to i8, !dbg !4846
  store i8 %841, i8* %159, align 1, !dbg !4846, !tbaa !4118
  %842 = load i8, i8* %159, align 1, !dbg !4850, !tbaa !4118, !range !4121
  %843 = trunc i8 %842 to i1, !dbg !4850
  br i1 %843, label %860, label %844, !dbg !4851

844:                                              ; preds = %839
  %845 = bitcast i32* %160 to i8*, !dbg !4852
  call void @llvm.lifetime.start.p0i8(i64 4, i8* %845) #9, !dbg !4852
  call void @llvm.dbg.declare(metadata i32* %160, metadata !4080, metadata !DIExpression()), !dbg !4853
  %846 = load i32, i32* %28, align 4, !dbg !4854, !tbaa !3272
  %847 = load i32, i32* %27, align 4, !dbg !4855, !tbaa !3272
  %848 = add nsw i32 %846, %847, !dbg !4856
  store i32 %848, i32* %160, align 4, !dbg !4853, !tbaa !3272
  %849 = bitcast i32* %161 to i8*, !dbg !4857
  call void @llvm.lifetime.start.p0i8(i64 4, i8* %849) #9, !dbg !4857
  call void @llvm.dbg.declare(metadata i32* %161, metadata !4083, metadata !DIExpression()), !dbg !4858
  %850 = load i32, i32* %160, align 4, !dbg !4859, !tbaa !3272
  %851 = add nsw i32 %850, -1, !dbg !4860
  store i32 %851, i32* %161, align 4, !dbg !4858, !tbaa !3272
  %852 = bitcast i32* %162 to i8*, !dbg !4861
  call void @llvm.lifetime.start.p0i8(i64 4, i8* %852) #9, !dbg !4861
  call void @llvm.dbg.declare(metadata i32* %162, metadata !4084, metadata !DIExpression()), !dbg !4862
  %853 = load i32, i32* %27, align 4, !dbg !4863, !tbaa !3272
  %854 = load i32, i32* %161, align 4, !dbg !4864, !tbaa !3272
  %855 = call i32 @halide_error_explicit_bounds_too_small(i8* noundef null, i8* noundef getelementptr inbounds ([3 x i8], [3 x i8]* @.str.42, i64 0, i64 0), i8* noundef getelementptr inbounds ([7 x i8], [7 x i8]* @.str.34, i64 0, i64 0), i32 noundef 0, i32 noundef 0, i32 noundef %853, i32 noundef %854), !dbg !4865
  store i32 %855, i32* %162, align 4, !dbg !4862, !tbaa !3272
  %856 = load i32, i32* %162, align 4, !dbg !4866, !tbaa !3272
  store i32 %856, i32* %4, align 4, !dbg !4867
  store i32 1, i32* %13, align 4
  %857 = bitcast i32* %162 to i8*, !dbg !4868
  call void @llvm.lifetime.end.p0i8(i64 4, i8* %857) #9, !dbg !4868
  %858 = bitcast i32* %161 to i8*, !dbg !4868
  call void @llvm.lifetime.end.p0i8(i64 4, i8* %858) #9, !dbg !4868
  %859 = bitcast i32* %160 to i8*, !dbg !4868
  call void @llvm.lifetime.end.p0i8(i64 4, i8* %859) #9, !dbg !4868
  br label %931

860:                                              ; preds = %839
  %861 = bitcast [1 x float]* %163 to i8*, !dbg !4869
  call void @llvm.lifetime.start.p0i8(i64 4, i8* %861) #9, !dbg !4869
  call void @llvm.dbg.declare(metadata [1 x float]* %163, metadata !4085, metadata !DIExpression()), !dbg !4870
  %862 = bitcast float* %164 to i8*, !dbg !4871
  call void @llvm.lifetime.start.p0i8(i64 4, i8* %862) #9, !dbg !4871
  call void @llvm.dbg.declare(metadata float* %164, metadata !4088, metadata !DIExpression()), !dbg !4872
  %863 = call noundef float @_Z15float_from_bitsj(i32 noundef 0), !dbg !4873
  store float %863, float* %164, align 4, !dbg !4872, !tbaa !4874
  %864 = load float, float* %164, align 4, !dbg !4876, !tbaa !4874
  %865 = getelementptr inbounds [1 x float], [1 x float]* %163, i64 0, i64 0, !dbg !4877
  store float %864, float* %865, align 4, !dbg !4878, !tbaa !4874
  %866 = bitcast i32* %165 to i8*, !dbg !4879
  call void @llvm.lifetime.start.p0i8(i64 4, i8* %866) #9, !dbg !4879
  call void @llvm.dbg.declare(metadata i32* %165, metadata !4089, metadata !DIExpression()), !dbg !4880
  %867 = load i32, i32* %35, align 4, !dbg !4881, !tbaa !3272
  %868 = load i32, i32* %43, align 4, !dbg !4882, !tbaa !3272
  %869 = sub nsw i32 %867, %868, !dbg !4883
  store i32 %869, i32* %165, align 4, !dbg !4880, !tbaa !3272
  %870 = bitcast i32* %166 to i8*, !dbg !4884
  call void @llvm.lifetime.start.p0i8(i64 4, i8* %870) #9, !dbg !4884
  call void @llvm.dbg.declare(metadata i32* %166, metadata !4090, metadata !DIExpression()), !dbg !4885
  store i32 0, i32* %166, align 4, !dbg !4885, !tbaa !3272
  br label %871, !dbg !4884

871:                                              ; preds = %916, %860
  %872 = load i32, i32* %166, align 4, !dbg !4886, !tbaa !3272
  %873 = load i32, i32* %36, align 4, !dbg !4887, !tbaa !3272
  %874 = add nsw i32 0, %873, !dbg !4888
  %875 = icmp slt i32 %872, %874, !dbg !4889
  br i1 %875, label %878, label %876, !dbg !4890

876:                                              ; preds = %871
  store i32 2, i32* %13, align 4
  %877 = bitcast i32* %166 to i8*, !dbg !4891
  call void @llvm.lifetime.end.p0i8(i64 4, i8* %877) #9, !dbg !4891
  br label %919

878:                                              ; preds = %871
  %879 = bitcast float* %167 to i8*, !dbg !4892
  call void @llvm.lifetime.start.p0i8(i64 4, i8* %879) #9, !dbg !4892
  call void @llvm.dbg.declare(metadata float* %167, metadata !4092, metadata !DIExpression()), !dbg !4893
  %880 = getelementptr inbounds [1 x float], [1 x float]* %163, i64 0, i64 0, !dbg !4894
  %881 = load float, float* %880, align 4, !dbg !4894, !tbaa !4874
  store float %881, float* %167, align 4, !dbg !4893, !tbaa !4874
  %882 = bitcast float* %168 to i8*, !dbg !4895
  call void @llvm.lifetime.start.p0i8(i64 4, i8* %882) #9, !dbg !4895
  call void @llvm.dbg.declare(metadata float* %168, metadata !4095, metadata !DIExpression()), !dbg !4896
  %883 = load i8*, i8** %31, align 8, !dbg !4897, !tbaa !3266
  %884 = bitcast i8* %883 to float*, !dbg !4898
  %885 = load i32, i32* %166, align 4, !dbg !4899, !tbaa !3272
  %886 = sext i32 %885 to i64, !dbg !4898
  %887 = getelementptr inbounds float, float* %884, i64 %886, !dbg !4898
  %888 = load float, float* %887, align 4, !dbg !4898, !tbaa !4874
  store float %888, float* %168, align 4, !dbg !4896, !tbaa !4874
  %889 = bitcast i32* %169 to i8*, !dbg !4900
  call void @llvm.lifetime.start.p0i8(i64 4, i8* %889) #9, !dbg !4900
  call void @llvm.dbg.declare(metadata i32* %169, metadata !4096, metadata !DIExpression()), !dbg !4901
  %890 = load i32, i32* %166, align 4, !dbg !4902, !tbaa !3272
  %891 = load i32, i32* %165, align 4, !dbg !4903, !tbaa !3272
  %892 = add nsw i32 %890, %891, !dbg !4904
  store i32 %892, i32* %169, align 4, !dbg !4901, !tbaa !3272
  %893 = bitcast float* %170 to i8*, !dbg !4905
  call void @llvm.lifetime.start.p0i8(i64 4, i8* %893) #9, !dbg !4905
  call void @llvm.dbg.declare(metadata float* %170, metadata !4097, metadata !DIExpression()), !dbg !4906
  %894 = load i8*, i8** %39, align 8, !dbg !4907, !tbaa !3266
  %895 = bitcast i8* %894 to float*, !dbg !4908
  %896 = load i32, i32* %169, align 4, !dbg !4909, !tbaa !3272
  %897 = sext i32 %896 to i64, !dbg !4908
  %898 = getelementptr inbounds float, float* %895, i64 %897, !dbg !4908
  %899 = load float, float* %898, align 4, !dbg !4908, !tbaa !4874
  store float %899, float* %170, align 4, !dbg !4906, !tbaa !4874
  %900 = bitcast float* %171 to i8*, !dbg !4910
  call void @llvm.lifetime.start.p0i8(i64 4, i8* %900) #9, !dbg !4910
  call void @llvm.dbg.declare(metadata float* %171, metadata !4098, metadata !DIExpression()), !dbg !4911
  %901 = load float, float* %168, align 4, !dbg !4912, !tbaa !4874
  %902 = load float, float* %170, align 4, !dbg !4913, !tbaa !4874
  %903 = fmul float %901, %902, !dbg !4914
  store float %903, float* %171, align 4, !dbg !4911, !tbaa !4874
  %904 = bitcast float* %172 to i8*, !dbg !4915
  call void @llvm.lifetime.start.p0i8(i64 4, i8* %904) #9, !dbg !4915
  call void @llvm.dbg.declare(metadata float* %172, metadata !4099, metadata !DIExpression()), !dbg !4916
  %905 = load float, float* %167, align 4, !dbg !4917, !tbaa !4874
  %906 = load float, float* %171, align 4, !dbg !4918, !tbaa !4874
  %907 = fadd float %905, %906, !dbg !4919
  store float %907, float* %172, align 4, !dbg !4916, !tbaa !4874
  %908 = load float, float* %172, align 4, !dbg !4920, !tbaa !4874
  %909 = getelementptr inbounds [1 x float], [1 x float]* %163, i64 0, i64 0, !dbg !4921
  store float %908, float* %909, align 4, !dbg !4922, !tbaa !4874
  %910 = bitcast float* %172 to i8*, !dbg !4923
  call void @llvm.lifetime.end.p0i8(i64 4, i8* %910) #9, !dbg !4923
  %911 = bitcast float* %171 to i8*, !dbg !4923
  call void @llvm.lifetime.end.p0i8(i64 4, i8* %911) #9, !dbg !4923
  %912 = bitcast float* %170 to i8*, !dbg !4923
  call void @llvm.lifetime.end.p0i8(i64 4, i8* %912) #9, !dbg !4923
  %913 = bitcast i32* %169 to i8*, !dbg !4923
  call void @llvm.lifetime.end.p0i8(i64 4, i8* %913) #9, !dbg !4923
  %914 = bitcast float* %168 to i8*, !dbg !4923
  call void @llvm.lifetime.end.p0i8(i64 4, i8* %914) #9, !dbg !4923
  %915 = bitcast float* %167 to i8*, !dbg !4923
  call void @llvm.lifetime.end.p0i8(i64 4, i8* %915) #9, !dbg !4923
  br label %916, !dbg !4924

916:                                              ; preds = %878
  %917 = load i32, i32* %166, align 4, !dbg !4925, !tbaa !3272
  %918 = add nsw i32 %917, 1, !dbg !4925
  store i32 %918, i32* %166, align 4, !dbg !4925, !tbaa !3272
  br label %871, !dbg !4891, !llvm.loop !4926

919:                                              ; preds = %876
  %920 = bitcast float* %173 to i8*, !dbg !4928
  call void @llvm.lifetime.start.p0i8(i64 4, i8* %920) #9, !dbg !4928
  call void @llvm.dbg.declare(metadata float* %173, metadata !4100, metadata !DIExpression()), !dbg !4929
  %921 = getelementptr inbounds [1 x float], [1 x float]* %163, i64 0, i64 0, !dbg !4930
  %922 = load float, float* %921, align 4, !dbg !4930, !tbaa !4874
  store float %922, float* %173, align 4, !dbg !4929, !tbaa !4874
  %923 = load float, float* %173, align 4, !dbg !4931, !tbaa !4874
  %924 = load i8*, i8** %23, align 8, !dbg !4932, !tbaa !3266
  %925 = bitcast i8* %924 to float*, !dbg !4933
  %926 = getelementptr inbounds float, float* %925, i64 0, !dbg !4933
  store float %923, float* %926, align 4, !dbg !4934, !tbaa !4874
  %927 = bitcast float* %173 to i8*, !dbg !4935
  call void @llvm.lifetime.end.p0i8(i64 4, i8* %927) #9, !dbg !4935
  %928 = bitcast i32* %165 to i8*, !dbg !4935
  call void @llvm.lifetime.end.p0i8(i64 4, i8* %928) #9, !dbg !4935
  %929 = bitcast float* %164 to i8*, !dbg !4935
  call void @llvm.lifetime.end.p0i8(i64 4, i8* %929) #9, !dbg !4935
  %930 = bitcast [1 x float]* %163 to i8*, !dbg !4935
  call void @llvm.lifetime.end.p0i8(i64 4, i8* %930) #9, !dbg !4935
  store i32 0, i32* %13, align 4, !dbg !4936
  br label %931, !dbg !4936

931:                                              ; preds = %919, %844
  call void @llvm.lifetime.end.p0i8(i64 1, i8* %159) #9, !dbg !4936
  call void @llvm.lifetime.end.p0i8(i64 1, i8* %158) #9, !dbg !4936
  %932 = bitcast i32* %157 to i8*, !dbg !4936
  call void @llvm.lifetime.end.p0i8(i64 4, i8* %932) #9, !dbg !4936
  call void @llvm.lifetime.end.p0i8(i64 1, i8* %156) #9, !dbg !4936
  br label %933

933:                                              ; preds = %931, %818
  call void @llvm.lifetime.end.p0i8(i64 1, i8* %154) #9, !dbg !4936
  %934 = bitcast i8** %153 to i8*, !dbg !4936
  call void @llvm.lifetime.end.p0i8(i64 8, i8* %934) #9, !dbg !4936
  br label %935

935:                                              ; preds = %933, %805
  call void @llvm.lifetime.end.p0i8(i64 1, i8* %151) #9, !dbg !4936
  %936 = bitcast i8** %150 to i8*, !dbg !4936
  call void @llvm.lifetime.end.p0i8(i64 8, i8* %936) #9, !dbg !4936
  br label %937

937:                                              ; preds = %935, %792
  call void @llvm.lifetime.end.p0i8(i64 1, i8* %148) #9, !dbg !4936
  %938 = bitcast i8** %147 to i8*, !dbg !4936
  call void @llvm.lifetime.end.p0i8(i64 8, i8* %938) #9, !dbg !4936
  br label %939

939:                                              ; preds = %937, %779
  call void @llvm.lifetime.end.p0i8(i64 1, i8* %145) #9, !dbg !4936
  br label %940

940:                                              ; preds = %939, %767
  call void @llvm.lifetime.end.p0i8(i64 1, i8* %143) #9, !dbg !4936
  br label %941

941:                                              ; preds = %940, %755
  call void @llvm.lifetime.end.p0i8(i64 1, i8* %141) #9, !dbg !4936
  br label %942

942:                                              ; preds = %941, %735
  call void @llvm.lifetime.end.p0i8(i64 1, i8* %137) #9, !dbg !4936
  %943 = bitcast i64* %136 to i8*, !dbg !4936
  call void @llvm.lifetime.end.p0i8(i64 8, i8* %943) #9, !dbg !4936
  %944 = bitcast i64* %135 to i8*, !dbg !4936
  call void @llvm.lifetime.end.p0i8(i64 8, i8* %944) #9, !dbg !4936
  br label %945

945:                                              ; preds = %942, %711
  call void @llvm.lifetime.end.p0i8(i64 1, i8* %131) #9, !dbg !4936
  %946 = bitcast i64* %130 to i8*, !dbg !4936
  call void @llvm.lifetime.end.p0i8(i64 8, i8* %946) #9, !dbg !4936
  %947 = bitcast i64* %129 to i8*, !dbg !4936
  call void @llvm.lifetime.end.p0i8(i64 8, i8* %947) #9, !dbg !4936
  br label %948

948:                                              ; preds = %945, %687
  call void @llvm.lifetime.end.p0i8(i64 1, i8* %125) #9, !dbg !4936
  %949 = bitcast i64* %124 to i8*, !dbg !4936
  call void @llvm.lifetime.end.p0i8(i64 8, i8* %949) #9, !dbg !4936
  %950 = bitcast i64* %123 to i8*, !dbg !4936
  call void @llvm.lifetime.end.p0i8(i64 8, i8* %950) #9, !dbg !4936
  br label %951

951:                                              ; preds = %948, %670
  call void @llvm.lifetime.end.p0i8(i64 1, i8* %121) #9, !dbg !4936
  br label %952

952:                                              ; preds = %951, %658
  call void @llvm.lifetime.end.p0i8(i64 1, i8* %119) #9, !dbg !4936
  br label %953

953:                                              ; preds = %952, %646
  call void @llvm.lifetime.end.p0i8(i64 1, i8* %117) #9, !dbg !4936
  br label %954

954:                                              ; preds = %953, %634
  call void @llvm.lifetime.end.p0i8(i64 1, i8* %115) #9, !dbg !4936
  br label %955

955:                                              ; preds = %954, %601
  call void @llvm.lifetime.end.p0i8(i64 1, i8* %109) #9, !dbg !4936
  call void @llvm.lifetime.end.p0i8(i64 1, i8* %108) #9, !dbg !4936
  %956 = bitcast i32* %107 to i8*, !dbg !4936
  call void @llvm.lifetime.end.p0i8(i64 4, i8* %956) #9, !dbg !4936
  %957 = bitcast i32* %106 to i8*, !dbg !4936
  call void @llvm.lifetime.end.p0i8(i64 4, i8* %957) #9, !dbg !4936
  call void @llvm.lifetime.end.p0i8(i64 1, i8* %105) #9, !dbg !4936
  br label %958

958:                                              ; preds = %955, %568
  call void @llvm.lifetime.end.p0i8(i64 1, i8* %103) #9, !dbg !4936
  br label %959

959:                                              ; preds = %958, %556
  call void @llvm.lifetime.end.p0i8(i64 1, i8* %101) #9, !dbg !4936
  br label %960

960:                                              ; preds = %959, %534
  call void @llvm.lifetime.end.p0i8(i64 1, i8* %97) #9, !dbg !4936
  call void @llvm.lifetime.end.p0i8(i64 1, i8* %96) #9, !dbg !4936
  %961 = bitcast i32* %95 to i8*, !dbg !4936
  call void @llvm.lifetime.end.p0i8(i64 4, i8* %961) #9, !dbg !4936
  call void @llvm.lifetime.end.p0i8(i64 1, i8* %94) #9, !dbg !4936
  br label %962

962:                                              ; preds = %960, %507
  call void @llvm.lifetime.end.p0i8(i64 1, i8* %92) #9, !dbg !4936
  br label %963

963:                                              ; preds = %962, %492
  call void @llvm.lifetime.end.p0i8(i64 1, i8* %89) #9, !dbg !4936
  %964 = bitcast i32* %88 to i8*, !dbg !4936
  call void @llvm.lifetime.end.p0i8(i64 4, i8* %964) #9, !dbg !4936
  br label %965

965:                                              ; preds = %963, %478
  call void @llvm.lifetime.end.p0i8(i64 1, i8* %86) #9, !dbg !4936
  br label %966

966:                                              ; preds = %965, %463
  call void @llvm.lifetime.end.p0i8(i64 1, i8* %83) #9, !dbg !4936
  %967 = bitcast i32* %82 to i8*, !dbg !4936
  call void @llvm.lifetime.end.p0i8(i64 4, i8* %967) #9, !dbg !4936
  br label %968

968:                                              ; preds = %966, %449
  call void @llvm.lifetime.end.p0i8(i64 1, i8* %80) #9, !dbg !4936
  br label %969

969:                                              ; preds = %968, %434
  call void @llvm.lifetime.end.p0i8(i64 1, i8* %77) #9, !dbg !4936
  %970 = bitcast i32* %76 to i8*, !dbg !4936
  call void @llvm.lifetime.end.p0i8(i64 4, i8* %970) #9, !dbg !4936
  %971 = load i32, i32* %13, align 4
  switch i32 %971, label %974 [
    i32 0, label %972
  ]

972:                                              ; preds = %969
  br label %973, !dbg !4937

973:                                              ; preds = %972, %417
  store i32 0, i32* %4, align 4, !dbg !4938
  store i32 1, i32* %13, align 4
  br label %974, !dbg !4938

974:                                              ; preds = %973, %969
  call void @llvm.lifetime.end.p0i8(i64 1, i8* %75) #9, !dbg !4939
  call void @llvm.lifetime.end.p0i8(i64 1, i8* %74) #9, !dbg !4939
  call void @llvm.lifetime.end.p0i8(i64 1, i8* %73) #9, !dbg !4939
  call void @llvm.lifetime.end.p0i8(i64 1, i8* %72) #9, !dbg !4939
  call void @llvm.lifetime.end.p0i8(i64 1, i8* %71) #9, !dbg !4939
  call void @llvm.lifetime.end.p0i8(i64 1, i8* %70) #9, !dbg !4939
  call void @llvm.lifetime.end.p0i8(i64 1, i8* %62) #9, !dbg !4939
  call void @llvm.lifetime.end.p0i8(i64 1, i8* %54) #9, !dbg !4939
  call void @llvm.lifetime.end.p0i8(i64 1, i8* %46) #9, !dbg !4939
  %975 = bitcast i32* %45 to i8*, !dbg !4939
  call void @llvm.lifetime.end.p0i8(i64 4, i8* %975) #9, !dbg !4939
  %976 = bitcast i32* %44 to i8*, !dbg !4939
  call void @llvm.lifetime.end.p0i8(i64 4, i8* %976) #9, !dbg !4939
  %977 = bitcast i32* %43 to i8*, !dbg !4939
  call void @llvm.lifetime.end.p0i8(i64 4, i8* %977) #9, !dbg !4939
  %978 = bitcast i32* %42 to i8*, !dbg !4939
  call void @llvm.lifetime.end.p0i8(i64 4, i8* %978) #9, !dbg !4939
  call void @llvm.lifetime.end.p0i8(i64 1, i8* %41) #9, !dbg !4939
  %979 = bitcast i32* %40 to i8*, !dbg !4939
  call void @llvm.lifetime.end.p0i8(i64 4, i8* %979) #9, !dbg !4939
  %980 = bitcast i8** %39 to i8*, !dbg !4939
  call void @llvm.lifetime.end.p0i8(i64 8, i8* %980) #9, !dbg !4939
  %981 = bitcast i8** %38 to i8*, !dbg !4939
  call void @llvm.lifetime.end.p0i8(i64 8, i8* %981) #9, !dbg !4939
  %982 = bitcast i32* %37 to i8*, !dbg !4939
  call void @llvm.lifetime.end.p0i8(i64 4, i8* %982) #9, !dbg !4939
  %983 = bitcast i32* %36 to i8*, !dbg !4939
  call void @llvm.lifetime.end.p0i8(i64 4, i8* %983) #9, !dbg !4939
  %984 = bitcast i32* %35 to i8*, !dbg !4939
  call void @llvm.lifetime.end.p0i8(i64 4, i8* %984) #9, !dbg !4939
  %985 = bitcast i32* %34 to i8*, !dbg !4939
  call void @llvm.lifetime.end.p0i8(i64 4, i8* %985) #9, !dbg !4939
  call void @llvm.lifetime.end.p0i8(i64 1, i8* %33) #9, !dbg !4939
  %986 = bitcast i32* %32 to i8*, !dbg !4939
  call void @llvm.lifetime.end.p0i8(i64 4, i8* %986) #9, !dbg !4939
  %987 = bitcast i8** %31 to i8*, !dbg !4939
  call void @llvm.lifetime.end.p0i8(i64 8, i8* %987) #9, !dbg !4939
  %988 = bitcast i8** %30 to i8*, !dbg !4939
  call void @llvm.lifetime.end.p0i8(i64 8, i8* %988) #9, !dbg !4939
  %989 = bitcast i32* %29 to i8*, !dbg !4939
  call void @llvm.lifetime.end.p0i8(i64 4, i8* %989) #9, !dbg !4939
  %990 = bitcast i32* %28 to i8*, !dbg !4939
  call void @llvm.lifetime.end.p0i8(i64 4, i8* %990) #9, !dbg !4939
  %991 = bitcast i32* %27 to i8*, !dbg !4939
  call void @llvm.lifetime.end.p0i8(i64 4, i8* %991) #9, !dbg !4939
  %992 = bitcast i32* %26 to i8*, !dbg !4939
  call void @llvm.lifetime.end.p0i8(i64 4, i8* %992) #9, !dbg !4939
  call void @llvm.lifetime.end.p0i8(i64 1, i8* %25) #9, !dbg !4939
  %993 = bitcast i32* %24 to i8*, !dbg !4939
  call void @llvm.lifetime.end.p0i8(i64 4, i8* %993) #9, !dbg !4939
  %994 = bitcast i8** %23 to i8*, !dbg !4939
  call void @llvm.lifetime.end.p0i8(i64 8, i8* %994) #9, !dbg !4939
  %995 = bitcast i8** %22 to i8*, !dbg !4939
  call void @llvm.lifetime.end.p0i8(i64 8, i8* %995) #9, !dbg !4939
  br label %996

996:                                              ; preds = %974, %217
  call void @llvm.lifetime.end.p0i8(i64 1, i8* %20) #9, !dbg !4939
  %997 = bitcast i64* %19 to i8*, !dbg !4939
  call void @llvm.lifetime.end.p0i8(i64 8, i8* %997) #9, !dbg !4939
  %998 = bitcast i64* %18 to i8*, !dbg !4939
  call void @llvm.lifetime.end.p0i8(i64 8, i8* %998) #9, !dbg !4939
  br label %999

999:                                              ; preds = %996, %201
  call void @llvm.lifetime.end.p0i8(i64 1, i8* %16) #9, !dbg !4939
  %1000 = bitcast i64* %15 to i8*, !dbg !4939
  call void @llvm.lifetime.end.p0i8(i64 8, i8* %1000) #9, !dbg !4939
  %1001 = bitcast i64* %14 to i8*, !dbg !4939
  call void @llvm.lifetime.end.p0i8(i64 8, i8* %1001) #9, !dbg !4939
  br label %1002

1002:                                             ; preds = %999, %185
  call void @llvm.lifetime.end.p0i8(i64 1, i8* %11) #9, !dbg !4939
  %1003 = bitcast i64* %10 to i8*, !dbg !4939
  call void @llvm.lifetime.end.p0i8(i64 8, i8* %1003) #9, !dbg !4939
  %1004 = bitcast i64* %9 to i8*, !dbg !4939
  call void @llvm.lifetime.end.p0i8(i64 8, i8* %1004) #9, !dbg !4939
  %1005 = bitcast i8** %8 to i8*, !dbg !4939
  call void @llvm.lifetime.end.p0i8(i64 8, i8* %1005) #9, !dbg !4939
  %1006 = load i32, i32* %4, align 4, !dbg !4939
  ret i32 %1006, !dbg !4939
}

; Function Attrs: inlinehint mustprogress nounwind ssp uwtable
define linkonce_odr hidden void @_Z19halide_maybe_unusedIPvEvRKT_(i8** noundef nonnull align 8 dereferenceable(8) %0) #7 !dbg !4940 {
  %2 = alloca i8**, align 8
  store i8** %0, i8*** %2, align 8, !tbaa !3266
  call void @llvm.dbg.declare(metadata i8*** %2, metadata !4945, metadata !DIExpression()), !dbg !4948
  ret void, !dbg !4949
}

; Function Attrs: inlinehint mustprogress nounwind ssp uwtable
define linkonce_odr hidden i8* @_halide_buffer_get_host(%struct.halide_buffer_t* noundef %0) #7 !dbg !4950 {
  %2 = alloca %struct.halide_buffer_t*, align 8
  store %struct.halide_buffer_t* %0, %struct.halide_buffer_t** %2, align 8, !tbaa !3266
  call void @llvm.dbg.declare(metadata %struct.halide_buffer_t** %2, metadata !4956, metadata !DIExpression()), !dbg !4957
  %3 = load %struct.halide_buffer_t*, %struct.halide_buffer_t** %2, align 8, !dbg !4958, !tbaa !3266
  %4 = getelementptr inbounds %struct.halide_buffer_t, %struct.halide_buffer_t* %3, i32 0, i32 2, !dbg !4959
  %5 = load i8*, i8** %4, align 8, !dbg !4959, !tbaa !4960
  ret i8* %5, !dbg !4965
}

; Function Attrs: inlinehint mustprogress nounwind ssp uwtable
define linkonce_odr hidden void @_Z19halide_maybe_unusedIPhEvRKT_(i8** noundef nonnull align 8 dereferenceable(8) %0) #7 !dbg !4966 {
  %2 = alloca i8**, align 8
  store i8** %0, i8*** %2, align 8, !tbaa !3266
  call void @llvm.dbg.declare(metadata i8*** %2, metadata !4972, metadata !DIExpression()), !dbg !4975
  ret void, !dbg !4976
}

; Function Attrs: inlinehint mustprogress ssp uwtable
define linkonce_odr hidden i32 @_halide_buffer_get_type(%struct.halide_buffer_t* noundef %0) #8 !dbg !4977 {
  %2 = alloca %struct.halide_buffer_t*, align 8
  store %struct.halide_buffer_t* %0, %struct.halide_buffer_t** %2, align 8, !tbaa !3266
  call void @llvm.dbg.declare(metadata %struct.halide_buffer_t** %2, metadata !4981, metadata !DIExpression()), !dbg !4982
  %3 = load %struct.halide_buffer_t*, %struct.halide_buffer_t** %2, align 8, !dbg !4983, !tbaa !3266
  %4 = getelementptr inbounds %struct.halide_buffer_t, %struct.halide_buffer_t* %3, i32 0, i32 4, !dbg !4984
  %5 = call noundef i32 @_ZNK13halide_type_t6as_u32Ev(%struct.halide_type_t* noundef nonnull align 2 dereferenceable(4) %4), !dbg !4985
  ret i32 %5, !dbg !4986
}

; Function Attrs: inlinehint mustprogress ssp uwtable
define linkonce_odr hidden zeroext i1 @_halide_buffer_get_device_dirty(%struct.halide_buffer_t* noundef %0) #8 !dbg !4987 {
  %2 = alloca %struct.halide_buffer_t*, align 8
  store %struct.halide_buffer_t* %0, %struct.halide_buffer_t** %2, align 8, !tbaa !3266
  call void @llvm.dbg.declare(metadata %struct.halide_buffer_t** %2, metadata !4991, metadata !DIExpression()), !dbg !4992
  %3 = load %struct.halide_buffer_t*, %struct.halide_buffer_t** %2, align 8, !dbg !4993, !tbaa !3266
  %4 = call noundef zeroext i1 @_ZNK15halide_buffer_t12device_dirtyEv(%struct.halide_buffer_t* noundef nonnull align 8 dereferenceable(56) %3), !dbg !4994
  ret i1 %4, !dbg !4995
}

; Function Attrs: inlinehint mustprogress nounwind ssp uwtable
define linkonce_odr hidden i32 @_halide_buffer_get_dimensions(%struct.halide_buffer_t* noundef %0) #7 !dbg !4996 {
  %2 = alloca %struct.halide_buffer_t*, align 8
  store %struct.halide_buffer_t* %0, %struct.halide_buffer_t** %2, align 8, !tbaa !3266
  call void @llvm.dbg.declare(metadata %struct.halide_buffer_t** %2, metadata !5000, metadata !DIExpression()), !dbg !5001
  %3 = load %struct.halide_buffer_t*, %struct.halide_buffer_t** %2, align 8, !dbg !5002, !tbaa !3266
  %4 = getelementptr inbounds %struct.halide_buffer_t, %struct.halide_buffer_t* %3, i32 0, i32 5, !dbg !5003
  %5 = load i32, i32* %4, align 4, !dbg !5003, !tbaa !5004
  ret i32 %5, !dbg !5005
}

; Function Attrs: inlinehint mustprogress nounwind ssp uwtable
define linkonce_odr hidden i32 @_halide_buffer_get_min(%struct.halide_buffer_t* noundef %0, i32 noundef %1) #7 !dbg !5006 {
  %3 = alloca %struct.halide_buffer_t*, align 8
  %4 = alloca i32, align 4
  store %struct.halide_buffer_t* %0, %struct.halide_buffer_t** %3, align 8, !tbaa !3266
  call void @llvm.dbg.declare(metadata %struct.halide_buffer_t** %3, metadata !5010, metadata !DIExpression()), !dbg !5012
  store i32 %1, i32* %4, align 4, !tbaa !3272
  call void @llvm.dbg.declare(metadata i32* %4, metadata !5011, metadata !DIExpression()), !dbg !5013
  %5 = load %struct.halide_buffer_t*, %struct.halide_buffer_t** %3, align 8, !dbg !5014, !tbaa !3266
  %6 = getelementptr inbounds %struct.halide_buffer_t, %struct.halide_buffer_t* %5, i32 0, i32 6, !dbg !5015
  %7 = load %struct.halide_dimension_t*, %struct.halide_dimension_t** %6, align 8, !dbg !5015, !tbaa !5016
  %8 = load i32, i32* %4, align 4, !dbg !5017, !tbaa !3272
  %9 = sext i32 %8 to i64, !dbg !5014
  %10 = getelementptr inbounds %struct.halide_dimension_t, %struct.halide_dimension_t* %7, i64 %9, !dbg !5014
  %11 = getelementptr inbounds %struct.halide_dimension_t, %struct.halide_dimension_t* %10, i32 0, i32 0, !dbg !5018
  %12 = load i32, i32* %11, align 4, !dbg !5018, !tbaa !5019
  ret i32 %12, !dbg !5021
}

; Function Attrs: inlinehint mustprogress nounwind ssp uwtable
define linkonce_odr hidden i32 @_halide_buffer_get_extent(%struct.halide_buffer_t* noundef %0, i32 noundef %1) #7 !dbg !5022 {
  %3 = alloca %struct.halide_buffer_t*, align 8
  %4 = alloca i32, align 4
  store %struct.halide_buffer_t* %0, %struct.halide_buffer_t** %3, align 8, !tbaa !3266
  call void @llvm.dbg.declare(metadata %struct.halide_buffer_t** %3, metadata !5024, metadata !DIExpression()), !dbg !5026
  store i32 %1, i32* %4, align 4, !tbaa !3272
  call void @llvm.dbg.declare(metadata i32* %4, metadata !5025, metadata !DIExpression()), !dbg !5027
  %5 = load %struct.halide_buffer_t*, %struct.halide_buffer_t** %3, align 8, !dbg !5028, !tbaa !3266
  %6 = getelementptr inbounds %struct.halide_buffer_t, %struct.halide_buffer_t* %5, i32 0, i32 6, !dbg !5029
  %7 = load %struct.halide_dimension_t*, %struct.halide_dimension_t** %6, align 8, !dbg !5029, !tbaa !5016
  %8 = load i32, i32* %4, align 4, !dbg !5030, !tbaa !3272
  %9 = sext i32 %8 to i64, !dbg !5028
  %10 = getelementptr inbounds %struct.halide_dimension_t, %struct.halide_dimension_t* %7, i64 %9, !dbg !5028
  %11 = getelementptr inbounds %struct.halide_dimension_t, %struct.halide_dimension_t* %10, i32 0, i32 1, !dbg !5031
  %12 = load i32, i32* %11, align 4, !dbg !5031, !tbaa !5032
  ret i32 %12, !dbg !5033
}

; Function Attrs: inlinehint mustprogress nounwind ssp uwtable
define linkonce_odr hidden i32 @_halide_buffer_get_stride(%struct.halide_buffer_t* noundef %0, i32 noundef %1) #7 !dbg !5034 {
  %3 = alloca %struct.halide_buffer_t*, align 8
  %4 = alloca i32, align 4
  store %struct.halide_buffer_t* %0, %struct.halide_buffer_t** %3, align 8, !tbaa !3266
  call void @llvm.dbg.declare(metadata %struct.halide_buffer_t** %3, metadata !5036, metadata !DIExpression()), !dbg !5038
  store i32 %1, i32* %4, align 4, !tbaa !3272
  call void @llvm.dbg.declare(metadata i32* %4, metadata !5037, metadata !DIExpression()), !dbg !5039
  %5 = load %struct.halide_buffer_t*, %struct.halide_buffer_t** %3, align 8, !dbg !5040, !tbaa !3266
  %6 = getelementptr inbounds %struct.halide_buffer_t, %struct.halide_buffer_t* %5, i32 0, i32 6, !dbg !5041
  %7 = load %struct.halide_dimension_t*, %struct.halide_dimension_t** %6, align 8, !dbg !5041, !tbaa !5016
  %8 = load i32, i32* %4, align 4, !dbg !5042, !tbaa !3272
  %9 = sext i32 %8 to i64, !dbg !5040
  %10 = getelementptr inbounds %struct.halide_dimension_t, %struct.halide_dimension_t* %7, i64 %9, !dbg !5040
  %11 = getelementptr inbounds %struct.halide_dimension_t, %struct.halide_dimension_t* %10, i32 0, i32 2, !dbg !5043
  %12 = load i32, i32* %11, align 4, !dbg !5043, !tbaa !5044
  ret i32 %12, !dbg !5045
}

; Function Attrs: inlinehint mustprogress nounwind ssp uwtable
define linkonce_odr hidden zeroext i1 @_halide_buffer_is_bounds_query(%struct.halide_buffer_t* noundef %0) #7 !dbg !5046 {
  %2 = alloca %struct.halide_buffer_t*, align 8
  store %struct.halide_buffer_t* %0, %struct.halide_buffer_t** %2, align 8, !tbaa !3266
  call void @llvm.dbg.declare(metadata %struct.halide_buffer_t** %2, metadata !5048, metadata !DIExpression()), !dbg !5049
  %3 = load %struct.halide_buffer_t*, %struct.halide_buffer_t** %2, align 8, !dbg !5050, !tbaa !3266
  %4 = getelementptr inbounds %struct.halide_buffer_t, %struct.halide_buffer_t* %3, i32 0, i32 2, !dbg !5051
  %5 = load i8*, i8** %4, align 8, !dbg !5051, !tbaa !4960
  %6 = icmp eq i8* %5, null, !dbg !5052
  br i1 %6, label %7, label %12, !dbg !5053

7:                                                ; preds = %1
  %8 = load %struct.halide_buffer_t*, %struct.halide_buffer_t** %2, align 8, !dbg !5054, !tbaa !3266
  %9 = getelementptr inbounds %struct.halide_buffer_t, %struct.halide_buffer_t* %8, i32 0, i32 0, !dbg !5055
  %10 = load i64, i64* %9, align 8, !dbg !5055, !tbaa !5056
  %11 = icmp eq i64 %10, 0, !dbg !5057
  br label %12

12:                                               ; preds = %7, %1
  %13 = phi i1 [ false, %1 ], [ %11, %7 ], !dbg !5058
  ret i1 %13, !dbg !5059
}

; Function Attrs: inlinehint mustprogress nounwind ssp uwtable
define linkonce_odr hidden %struct.halide_dimension_t* @_halide_buffer_get_shape(%struct.halide_buffer_t* noundef %0) #7 !dbg !5060 {
  %2 = alloca %struct.halide_buffer_t*, align 8
  store %struct.halide_buffer_t* %0, %struct.halide_buffer_t** %2, align 8, !tbaa !3266
  call void @llvm.dbg.declare(metadata %struct.halide_buffer_t** %2, metadata !5064, metadata !DIExpression()), !dbg !5065
  %3 = load %struct.halide_buffer_t*, %struct.halide_buffer_t** %2, align 8, !dbg !5066, !tbaa !3266
  %4 = getelementptr inbounds %struct.halide_buffer_t, %struct.halide_buffer_t* %3, i32 0, i32 6, !dbg !5067
  %5 = load %struct.halide_dimension_t*, %struct.halide_dimension_t** %4, align 8, !dbg !5067, !tbaa !5016
  ret %struct.halide_dimension_t* %5, !dbg !5068
}

; Function Attrs: alwaysinline ssp uwtable
define linkonce_odr hidden void @_ZN18halide_dimension_tC1Eiiij(%struct.halide_dimension_t* noundef nonnull align 4 dereferenceable(16) %0, i32 noundef %1, i32 noundef %2, i32 noundef %3, i32 noundef %4) unnamed_addr #5 align 2 !dbg !5069 {
  %6 = alloca %struct.halide_dimension_t*, align 8
  %7 = alloca i32, align 4
  %8 = alloca i32, align 4
  %9 = alloca i32, align 4
  %10 = alloca i32, align 4
  store %struct.halide_dimension_t* %0, %struct.halide_dimension_t** %6, align 8, !tbaa !3266
  call void @llvm.dbg.declare(metadata %struct.halide_dimension_t** %6, metadata !5071, metadata !DIExpression()), !dbg !5076
  store i32 %1, i32* %7, align 4, !tbaa !3272
  call void @llvm.dbg.declare(metadata i32* %7, metadata !5072, metadata !DIExpression()), !dbg !5077
  store i32 %2, i32* %8, align 4, !tbaa !3272
  call void @llvm.dbg.declare(metadata i32* %8, metadata !5073, metadata !DIExpression()), !dbg !5078
  store i32 %3, i32* %9, align 4, !tbaa !3272
  call void @llvm.dbg.declare(metadata i32* %9, metadata !5074, metadata !DIExpression()), !dbg !5079
  store i32 %4, i32* %10, align 4, !tbaa !3272
  call void @llvm.dbg.declare(metadata i32* %10, metadata !5075, metadata !DIExpression()), !dbg !5080
  %11 = load %struct.halide_dimension_t*, %struct.halide_dimension_t** %6, align 8
  %12 = load i32, i32* %7, align 4, !dbg !5081, !tbaa !3272
  %13 = load i32, i32* %8, align 4, !dbg !5081, !tbaa !3272
  %14 = load i32, i32* %9, align 4, !dbg !5081, !tbaa !3272
  %15 = load i32, i32* %10, align 4, !dbg !5081, !tbaa !3272
  call void @_ZN18halide_dimension_tC2Eiiij(%struct.halide_dimension_t* noundef nonnull align 4 dereferenceable(16) %11, i32 noundef %12, i32 noundef %13, i32 noundef %14, i32 noundef %15), !dbg !5081
  ret void, !dbg !5082
}

; Function Attrs: inlinehint mustprogress nounwind ssp uwtable
define linkonce_odr hidden %struct.halide_buffer_t* @_halide_buffer_init(%struct.halide_buffer_t* noundef %0, %struct.halide_dimension_t* noundef %1, i8* noundef %2, i64 noundef %3, %struct.halide_device_interface_t* noundef %4, i32 noundef %5, i32 noundef %6, i32 noundef %7, %struct.halide_dimension_t* noundef %8, i64 noundef %9) #7 !dbg !5083 {
  %11 = alloca %struct.halide_buffer_t*, align 8
  %12 = alloca %struct.halide_dimension_t*, align 8
  %13 = alloca i8*, align 8
  %14 = alloca i64, align 8
  %15 = alloca %struct.halide_device_interface_t*, align 8
  %16 = alloca i32, align 4
  %17 = alloca i32, align 4
  %18 = alloca i32, align 4
  %19 = alloca %struct.halide_dimension_t*, align 8
  %20 = alloca i64, align 8
  %21 = alloca i32, align 4
  store %struct.halide_buffer_t* %0, %struct.halide_buffer_t** %11, align 8, !tbaa !3266
  call void @llvm.dbg.declare(metadata %struct.halide_buffer_t** %11, metadata !5087, metadata !DIExpression()), !dbg !5101
  store %struct.halide_dimension_t* %1, %struct.halide_dimension_t** %12, align 8, !tbaa !3266
  call void @llvm.dbg.declare(metadata %struct.halide_dimension_t** %12, metadata !5088, metadata !DIExpression()), !dbg !5102
  store i8* %2, i8** %13, align 8, !tbaa !3266
  call void @llvm.dbg.declare(metadata i8** %13, metadata !5089, metadata !DIExpression()), !dbg !5103
  store i64 %3, i64* %14, align 8, !tbaa !3670
  call void @llvm.dbg.declare(metadata i64* %14, metadata !5090, metadata !DIExpression()), !dbg !5104
  store %struct.halide_device_interface_t* %4, %struct.halide_device_interface_t** %15, align 8, !tbaa !3266
  call void @llvm.dbg.declare(metadata %struct.halide_device_interface_t** %15, metadata !5091, metadata !DIExpression()), !dbg !5105
  store i32 %5, i32* %16, align 4, !tbaa !3272
  call void @llvm.dbg.declare(metadata i32* %16, metadata !5092, metadata !DIExpression()), !dbg !5106
  store i32 %6, i32* %17, align 4, !tbaa !3272
  call void @llvm.dbg.declare(metadata i32* %17, metadata !5093, metadata !DIExpression()), !dbg !5107
  store i32 %7, i32* %18, align 4, !tbaa !3272
  call void @llvm.dbg.declare(metadata i32* %18, metadata !5094, metadata !DIExpression()), !dbg !5108
  store %struct.halide_dimension_t* %8, %struct.halide_dimension_t** %19, align 8, !tbaa !3266
  call void @llvm.dbg.declare(metadata %struct.halide_dimension_t** %19, metadata !5095, metadata !DIExpression()), !dbg !5109
  store i64 %9, i64* %20, align 8, !tbaa !3670
  call void @llvm.dbg.declare(metadata i64* %20, metadata !5096, metadata !DIExpression()), !dbg !5110
  %22 = load i8*, i8** %13, align 8, !dbg !5111, !tbaa !3266
  %23 = load %struct.halide_buffer_t*, %struct.halide_buffer_t** %11, align 8, !dbg !5112, !tbaa !3266
  %24 = getelementptr inbounds %struct.halide_buffer_t, %struct.halide_buffer_t* %23, i32 0, i32 2, !dbg !5113
  store i8* %22, i8** %24, align 8, !dbg !5114, !tbaa !4960
  %25 = load i64, i64* %14, align 8, !dbg !5115, !tbaa !3670
  %26 = load %struct.halide_buffer_t*, %struct.halide_buffer_t** %11, align 8, !dbg !5116, !tbaa !3266
  %27 = getelementptr inbounds %struct.halide_buffer_t, %struct.halide_buffer_t* %26, i32 0, i32 0, !dbg !5117
  store i64 %25, i64* %27, align 8, !dbg !5118, !tbaa !5056
  %28 = load %struct.halide_device_interface_t*, %struct.halide_device_interface_t** %15, align 8, !dbg !5119, !tbaa !3266
  %29 = load %struct.halide_buffer_t*, %struct.halide_buffer_t** %11, align 8, !dbg !5120, !tbaa !3266
  %30 = getelementptr inbounds %struct.halide_buffer_t, %struct.halide_buffer_t* %29, i32 0, i32 1, !dbg !5121
  store %struct.halide_device_interface_t* %28, %struct.halide_device_interface_t** %30, align 8, !dbg !5122, !tbaa !5123
  %31 = load i32, i32* %16, align 4, !dbg !5124, !tbaa !3272
  %32 = trunc i32 %31 to i8, !dbg !5125
  %33 = load %struct.halide_buffer_t*, %struct.halide_buffer_t** %11, align 8, !dbg !5126, !tbaa !3266
  %34 = getelementptr inbounds %struct.halide_buffer_t, %struct.halide_buffer_t* %33, i32 0, i32 4, !dbg !5127
  %35 = getelementptr inbounds %struct.halide_type_t, %struct.halide_type_t* %34, i32 0, i32 0, !dbg !5128
  store i8 %32, i8* %35, align 8, !dbg !5129, !tbaa !5130
  %36 = load i32, i32* %17, align 4, !dbg !5131, !tbaa !3272
  %37 = trunc i32 %36 to i8, !dbg !5131
  %38 = load %struct.halide_buffer_t*, %struct.halide_buffer_t** %11, align 8, !dbg !5132, !tbaa !3266
  %39 = getelementptr inbounds %struct.halide_buffer_t, %struct.halide_buffer_t* %38, i32 0, i32 4, !dbg !5133
  %40 = getelementptr inbounds %struct.halide_type_t, %struct.halide_type_t* %39, i32 0, i32 1, !dbg !5134
  store i8 %37, i8* %40, align 1, !dbg !5135, !tbaa !5136
  %41 = load %struct.halide_buffer_t*, %struct.halide_buffer_t** %11, align 8, !dbg !5137, !tbaa !3266
  %42 = getelementptr inbounds %struct.halide_buffer_t, %struct.halide_buffer_t* %41, i32 0, i32 4, !dbg !5138
  %43 = getelementptr inbounds %struct.halide_type_t, %struct.halide_type_t* %42, i32 0, i32 2, !dbg !5139
  store i16 1, i16* %43, align 2, !dbg !5140, !tbaa !5141
  %44 = load i32, i32* %18, align 4, !dbg !5142, !tbaa !3272
  %45 = load %struct.halide_buffer_t*, %struct.halide_buffer_t** %11, align 8, !dbg !5143, !tbaa !3266
  %46 = getelementptr inbounds %struct.halide_buffer_t, %struct.halide_buffer_t* %45, i32 0, i32 5, !dbg !5144
  store i32 %44, i32* %46, align 4, !dbg !5145, !tbaa !5004
  %47 = load %struct.halide_dimension_t*, %struct.halide_dimension_t** %12, align 8, !dbg !5146, !tbaa !3266
  %48 = load %struct.halide_buffer_t*, %struct.halide_buffer_t** %11, align 8, !dbg !5147, !tbaa !3266
  %49 = getelementptr inbounds %struct.halide_buffer_t, %struct.halide_buffer_t* %48, i32 0, i32 6, !dbg !5148
  store %struct.halide_dimension_t* %47, %struct.halide_dimension_t** %49, align 8, !dbg !5149, !tbaa !5016
  %50 = load %struct.halide_dimension_t*, %struct.halide_dimension_t** %19, align 8, !dbg !5150, !tbaa !3266
  %51 = load %struct.halide_buffer_t*, %struct.halide_buffer_t** %11, align 8, !dbg !5151, !tbaa !3266
  %52 = getelementptr inbounds %struct.halide_buffer_t, %struct.halide_buffer_t* %51, i32 0, i32 6, !dbg !5152
  %53 = load %struct.halide_dimension_t*, %struct.halide_dimension_t** %52, align 8, !dbg !5152, !tbaa !5016
  %54 = icmp ne %struct.halide_dimension_t* %50, %53, !dbg !5153
  br i1 %54, label %55, label %80, !dbg !5154

55:                                               ; preds = %10
  %56 = bitcast i32* %21 to i8*, !dbg !5155
  call void @llvm.lifetime.start.p0i8(i64 4, i8* %56) #9, !dbg !5155
  call void @llvm.dbg.declare(metadata i32* %21, metadata !5097, metadata !DIExpression()), !dbg !5156
  store i32 0, i32* %21, align 4, !dbg !5156, !tbaa !3272
  br label %57, !dbg !5155

57:                                               ; preds = %76, %55
  %58 = load i32, i32* %21, align 4, !dbg !5157, !tbaa !3272
  %59 = load i32, i32* %18, align 4, !dbg !5159, !tbaa !3272
  %60 = icmp slt i32 %58, %59, !dbg !5160
  br i1 %60, label %63, label %61, !dbg !5161

61:                                               ; preds = %57
  %62 = bitcast i32* %21 to i8*, !dbg !5162
  call void @llvm.lifetime.end.p0i8(i64 4, i8* %62) #9, !dbg !5162
  br label %79

63:                                               ; preds = %57
  %64 = load %struct.halide_dimension_t*, %struct.halide_dimension_t** %19, align 8, !dbg !5163, !tbaa !3266
  %65 = load i32, i32* %21, align 4, !dbg !5165, !tbaa !3272
  %66 = sext i32 %65 to i64, !dbg !5163
  %67 = getelementptr inbounds %struct.halide_dimension_t, %struct.halide_dimension_t* %64, i64 %66, !dbg !5163
  %68 = load %struct.halide_buffer_t*, %struct.halide_buffer_t** %11, align 8, !dbg !5166, !tbaa !3266
  %69 = getelementptr inbounds %struct.halide_buffer_t, %struct.halide_buffer_t* %68, i32 0, i32 6, !dbg !5167
  %70 = load %struct.halide_dimension_t*, %struct.halide_dimension_t** %69, align 8, !dbg !5167, !tbaa !5016
  %71 = load i32, i32* %21, align 4, !dbg !5168, !tbaa !3272
  %72 = sext i32 %71 to i64, !dbg !5166
  %73 = getelementptr inbounds %struct.halide_dimension_t, %struct.halide_dimension_t* %70, i64 %72, !dbg !5166
  %74 = bitcast %struct.halide_dimension_t* %73 to i8*, !dbg !5169
  %75 = bitcast %struct.halide_dimension_t* %67 to i8*, !dbg !5169
  call void @llvm.memcpy.p0i8.p0i8.i64(i8* align 4 %74, i8* align 4 %75, i64 16, i1 false), !dbg !5169, !tbaa.struct !5170
  br label %76, !dbg !5171

76:                                               ; preds = %63
  %77 = load i32, i32* %21, align 4, !dbg !5172, !tbaa !3272
  %78 = add nsw i32 %77, 1, !dbg !5172
  store i32 %78, i32* %21, align 4, !dbg !5172, !tbaa !3272
  br label %57, !dbg !5162, !llvm.loop !5173

79:                                               ; preds = %61
  br label %80, !dbg !5175

80:                                               ; preds = %79, %10
  %81 = load i64, i64* %20, align 8, !dbg !5176, !tbaa !3670
  %82 = load %struct.halide_buffer_t*, %struct.halide_buffer_t** %11, align 8, !dbg !5177, !tbaa !3266
  %83 = getelementptr inbounds %struct.halide_buffer_t, %struct.halide_buffer_t* %82, i32 0, i32 3, !dbg !5178
  store i64 %81, i64* %83, align 8, !dbg !5179, !tbaa !5180
  %84 = load %struct.halide_buffer_t*, %struct.halide_buffer_t** %11, align 8, !dbg !5181, !tbaa !3266
  ret %struct.halide_buffer_t* %84, !dbg !5182
}

; Function Attrs: inlinehint mustprogress nounwind ssp uwtable
define linkonce_odr hidden void @_Z19halide_maybe_unusedIP15halide_buffer_tEvRKT_(%struct.halide_buffer_t** noundef nonnull align 8 dereferenceable(8) %0) #7 !dbg !5183 {
  %2 = alloca %struct.halide_buffer_t**, align 8
  store %struct.halide_buffer_t** %0, %struct.halide_buffer_t*** %2, align 8, !tbaa !3266
  call void @llvm.dbg.declare(metadata %struct.halide_buffer_t*** %2, metadata !5189, metadata !DIExpression()), !dbg !5192
  ret void, !dbg !5193
}

; Function Attrs: inlinehint mustprogress ssp uwtable
define linkonce_odr hidden noundef float @_Z15float_from_bitsj(i32 noundef %0) #8 !dbg !5194 {
  %2 = alloca i32, align 4
  store i32 %0, i32* %2, align 4, !tbaa !3272
  call void @llvm.dbg.declare(metadata i32* %2, metadata !5198, metadata !DIExpression()), !dbg !5199
  %3 = call noundef float @_Z11reinterpretIfjET_RKT0_(i32* noundef nonnull align 4 dereferenceable(4) %2), !dbg !5200
  ret float %3, !dbg !5201
}

; Function Attrs: mustprogress ssp uwtable
define hidden i32 @halide_dotProduct_argv(i8** noundef %0) #0 !dbg !5202 {
  %2 = alloca i8**, align 8
  store i8** %0, i8*** %2, align 8, !tbaa !3266
  call void @llvm.dbg.declare(metadata i8*** %2, metadata !5206, metadata !DIExpression()), !dbg !5207
  %3 = load i8**, i8*** %2, align 8, !dbg !5208, !tbaa !3266
  %4 = getelementptr inbounds i8*, i8** %3, i64 0, !dbg !5208
  %5 = load i8*, i8** %4, align 8, !dbg !5208, !tbaa !3266
  %6 = bitcast i8* %5 to %struct.halide_buffer_t*, !dbg !5209
  %7 = load i8**, i8*** %2, align 8, !dbg !5210, !tbaa !3266
  %8 = getelementptr inbounds i8*, i8** %7, i64 1, !dbg !5210
  %9 = load i8*, i8** %8, align 8, !dbg !5210, !tbaa !3266
  %10 = bitcast i8* %9 to %struct.halide_buffer_t*, !dbg !5211
  %11 = load i8**, i8*** %2, align 8, !dbg !5212, !tbaa !3266
  %12 = getelementptr inbounds i8*, i8** %11, i64 2, !dbg !5212
  %13 = load i8*, i8** %12, align 8, !dbg !5212, !tbaa !3266
  %14 = bitcast i8* %13 to %struct.halide_buffer_t*, !dbg !5213
  %15 = call i32 @halide_dotProduct(%struct.halide_buffer_t* noundef %6, %struct.halide_buffer_t* noundef %10, %struct.halide_buffer_t* noundef %14), !dbg !5214
  ret i32 %15, !dbg !5215
}

; Function Attrs: mustprogress ssp uwtable
define hidden %struct.halide_filter_metadata_t* @halide_dotProduct_metadata() #0 personality i8* bitcast (i32 (...)* @__gxx_personality_v0 to i8*) !dbg !1936 {
  %1 = alloca i64**, align 8
  %2 = alloca %struct.halide_scalar_value_t*, align 8
  %3 = alloca %struct.halide_scalar_value_t*, align 8
  %4 = alloca %struct.halide_scalar_value_t*, align 8
  %5 = alloca %struct.halide_scalar_value_t*, align 8
  %6 = alloca i64**, align 8
  %7 = alloca %struct.halide_scalar_value_t*, align 8
  %8 = alloca %struct.halide_scalar_value_t*, align 8
  %9 = alloca %struct.halide_scalar_value_t*, align 8
  %10 = alloca %struct.halide_scalar_value_t*, align 8
  %11 = alloca %struct.halide_scalar_value_t*, align 8
  %12 = alloca %struct.halide_scalar_value_t*, align 8
  %13 = alloca %struct.halide_scalar_value_t*, align 8
  %14 = alloca %struct.halide_scalar_value_t*, align 8
  %15 = alloca i8*, align 8
  %16 = alloca i32, align 4
  %17 = bitcast i64*** %1 to i8*, !dbg !5216
  call void @llvm.lifetime.start.p0i8(i64 8, i8* %17) #9, !dbg !5216
  call void @llvm.dbg.declare(metadata i64*** %1, metadata !1998, metadata !DIExpression()), !dbg !5217
  store i64** null, i64*** %1, align 8, !dbg !5217, !tbaa !3266
  %18 = bitcast %struct.halide_scalar_value_t** %2 to i8*, !dbg !5218
  call void @llvm.lifetime.start.p0i8(i64 8, i8* %18) #9, !dbg !5218
  call void @llvm.dbg.declare(metadata %struct.halide_scalar_value_t** %2, metadata !1999, metadata !DIExpression()), !dbg !5219
  store %struct.halide_scalar_value_t* null, %struct.halide_scalar_value_t** %2, align 8, !dbg !5219, !tbaa !3266
  %19 = bitcast %struct.halide_scalar_value_t** %3 to i8*, !dbg !5220
  call void @llvm.lifetime.start.p0i8(i64 8, i8* %19) #9, !dbg !5220
  call void @llvm.dbg.declare(metadata %struct.halide_scalar_value_t** %3, metadata !2000, metadata !DIExpression()), !dbg !5221
  store %struct.halide_scalar_value_t* null, %struct.halide_scalar_value_t** %3, align 8, !dbg !5221, !tbaa !3266
  %20 = bitcast %struct.halide_scalar_value_t** %4 to i8*, !dbg !5222
  call void @llvm.lifetime.start.p0i8(i64 8, i8* %20) #9, !dbg !5222
  call void @llvm.dbg.declare(metadata %struct.halide_scalar_value_t** %4, metadata !2001, metadata !DIExpression()), !dbg !5223
  store %struct.halide_scalar_value_t* null, %struct.halide_scalar_value_t** %4, align 8, !dbg !5223, !tbaa !3266
  %21 = bitcast %struct.halide_scalar_value_t** %5 to i8*, !dbg !5224
  call void @llvm.lifetime.start.p0i8(i64 8, i8* %21) #9, !dbg !5224
  call void @llvm.dbg.declare(metadata %struct.halide_scalar_value_t** %5, metadata !2002, metadata !DIExpression()), !dbg !5225
  store %struct.halide_scalar_value_t* null, %struct.halide_scalar_value_t** %5, align 8, !dbg !5225, !tbaa !3266
  %22 = bitcast i64*** %6 to i8*, !dbg !5226
  call void @llvm.lifetime.start.p0i8(i64 8, i8* %22) #9, !dbg !5226
  call void @llvm.dbg.declare(metadata i64*** %6, metadata !2003, metadata !DIExpression()), !dbg !5227
  store i64** null, i64*** %6, align 8, !dbg !5227, !tbaa !3266
  %23 = bitcast %struct.halide_scalar_value_t** %7 to i8*, !dbg !5228
  call void @llvm.lifetime.start.p0i8(i64 8, i8* %23) #9, !dbg !5228
  call void @llvm.dbg.declare(metadata %struct.halide_scalar_value_t** %7, metadata !2004, metadata !DIExpression()), !dbg !5229
  store %struct.halide_scalar_value_t* null, %struct.halide_scalar_value_t** %7, align 8, !dbg !5229, !tbaa !3266
  %24 = bitcast %struct.halide_scalar_value_t** %8 to i8*, !dbg !5230
  call void @llvm.lifetime.start.p0i8(i64 8, i8* %24) #9, !dbg !5230
  call void @llvm.dbg.declare(metadata %struct.halide_scalar_value_t** %8, metadata !2005, metadata !DIExpression()), !dbg !5231
  store %struct.halide_scalar_value_t* null, %struct.halide_scalar_value_t** %8, align 8, !dbg !5231, !tbaa !3266
  %25 = bitcast %struct.halide_scalar_value_t** %9 to i8*, !dbg !5232
  call void @llvm.lifetime.start.p0i8(i64 8, i8* %25) #9, !dbg !5232
  call void @llvm.dbg.declare(metadata %struct.halide_scalar_value_t** %9, metadata !2006, metadata !DIExpression()), !dbg !5233
  store %struct.halide_scalar_value_t* null, %struct.halide_scalar_value_t** %9, align 8, !dbg !5233, !tbaa !3266
  %26 = bitcast %struct.halide_scalar_value_t** %10 to i8*, !dbg !5234
  call void @llvm.lifetime.start.p0i8(i64 8, i8* %26) #9, !dbg !5234
  call void @llvm.dbg.declare(metadata %struct.halide_scalar_value_t** %10, metadata !2007, metadata !DIExpression()), !dbg !5235
  store %struct.halide_scalar_value_t* null, %struct.halide_scalar_value_t** %10, align 8, !dbg !5235, !tbaa !3266
  %27 = bitcast %struct.halide_scalar_value_t** %11 to i8*, !dbg !5236
  call void @llvm.lifetime.start.p0i8(i64 8, i8* %27) #9, !dbg !5236
  call void @llvm.dbg.declare(metadata %struct.halide_scalar_value_t** %11, metadata !2008, metadata !DIExpression()), !dbg !5237
  store %struct.halide_scalar_value_t* null, %struct.halide_scalar_value_t** %11, align 8, !dbg !5237, !tbaa !3266
  %28 = bitcast %struct.halide_scalar_value_t** %12 to i8*, !dbg !5238
  call void @llvm.lifetime.start.p0i8(i64 8, i8* %28) #9, !dbg !5238
  call void @llvm.dbg.declare(metadata %struct.halide_scalar_value_t** %12, metadata !2009, metadata !DIExpression()), !dbg !5239
  store %struct.halide_scalar_value_t* null, %struct.halide_scalar_value_t** %12, align 8, !dbg !5239, !tbaa !3266
  %29 = bitcast %struct.halide_scalar_value_t** %13 to i8*, !dbg !5240
  call void @llvm.lifetime.start.p0i8(i64 8, i8* %29) #9, !dbg !5240
  call void @llvm.dbg.declare(metadata %struct.halide_scalar_value_t** %13, metadata !2010, metadata !DIExpression()), !dbg !5241
  store %struct.halide_scalar_value_t* null, %struct.halide_scalar_value_t** %13, align 8, !dbg !5241, !tbaa !3266
  %30 = bitcast %struct.halide_scalar_value_t** %14 to i8*, !dbg !5242
  call void @llvm.lifetime.start.p0i8(i64 8, i8* %30) #9, !dbg !5242
  call void @llvm.dbg.declare(metadata %struct.halide_scalar_value_t** %14, metadata !2011, metadata !DIExpression()), !dbg !5243
  store %struct.halide_scalar_value_t* null, %struct.halide_scalar_value_t** %14, align 8, !dbg !5243, !tbaa !3266
  %31 = load atomic i8, i8* bitcast (i64* @_ZGVZ26halide_dotProduct_metadataE4args to i8*) acquire, align 8, !dbg !5244
  %32 = icmp eq i8 %31, 0, !dbg !5244
  br i1 %32, label %33, label %55, !dbg !5244, !prof !5245

33:                                               ; preds = %0
  %34 = call i32 @__cxa_guard_acquire(i64* @_ZGVZ26halide_dotProduct_metadataE4args) #9, !dbg !5244
  %35 = icmp ne i32 %34, 0, !dbg !5244
  br i1 %35, label %36, label %55, !dbg !5244

36:                                               ; preds = %33
  store i8* getelementptr inbounds ([8 x i8], [8 x i8]* @.str.33, i64 0, i64 0), i8** getelementptr inbounds ([3 x %struct.halide_filter_argument_t], [3 x %struct.halide_filter_argument_t]* @_ZZ26halide_dotProduct_metadataE4args, i64 0, i64 0, i32 0), align 16, !dbg !5246, !tbaa !5247
  store i32 1, i32* getelementptr inbounds ([3 x %struct.halide_filter_argument_t], [3 x %struct.halide_filter_argument_t]* @_ZZ26halide_dotProduct_metadataE4args, i64 0, i64 0, i32 1), align 8, !dbg !5246, !tbaa !5249
  store i32 1, i32* getelementptr inbounds ([3 x %struct.halide_filter_argument_t], [3 x %struct.halide_filter_argument_t]* @_ZZ26halide_dotProduct_metadataE4args, i64 0, i64 0, i32 2), align 4, !dbg !5246, !tbaa !5250
  invoke void @_ZN13halide_type_tC1E18halide_type_code_tht(%struct.halide_type_t* noundef nonnull align 2 dereferenceable(4) getelementptr inbounds ([3 x %struct.halide_filter_argument_t], [3 x %struct.halide_filter_argument_t]* @_ZZ26halide_dotProduct_metadataE4args, i64 0, i64 0, i32 3), i8 noundef zeroext 2, i8 noundef zeroext 32, i16 noundef zeroext 1)
          to label %37 unwind label %70, !dbg !5251

37:                                               ; preds = %36
  %38 = load %struct.halide_scalar_value_t*, %struct.halide_scalar_value_t** %2, align 8, !dbg !5252, !tbaa !3266
  store %struct.halide_scalar_value_t* %38, %struct.halide_scalar_value_t** getelementptr inbounds ([3 x %struct.halide_filter_argument_t], [3 x %struct.halide_filter_argument_t]* @_ZZ26halide_dotProduct_metadataE4args, i64 0, i64 0, i32 4), align 8, !dbg !5246, !tbaa !5253
  %39 = load %struct.halide_scalar_value_t*, %struct.halide_scalar_value_t** %3, align 8, !dbg !5254, !tbaa !3266
  store %struct.halide_scalar_value_t* %39, %struct.halide_scalar_value_t** getelementptr inbounds ([3 x %struct.halide_filter_argument_t], [3 x %struct.halide_filter_argument_t]* @_ZZ26halide_dotProduct_metadataE4args, i64 0, i64 0, i32 5), align 16, !dbg !5246, !tbaa !5255
  %40 = load %struct.halide_scalar_value_t*, %struct.halide_scalar_value_t** %4, align 8, !dbg !5256, !tbaa !3266
  store %struct.halide_scalar_value_t* %40, %struct.halide_scalar_value_t** getelementptr inbounds ([3 x %struct.halide_filter_argument_t], [3 x %struct.halide_filter_argument_t]* @_ZZ26halide_dotProduct_metadataE4args, i64 0, i64 0, i32 6), align 8, !dbg !5246, !tbaa !5257
  %41 = load %struct.halide_scalar_value_t*, %struct.halide_scalar_value_t** %5, align 8, !dbg !5258, !tbaa !3266
  store %struct.halide_scalar_value_t* %41, %struct.halide_scalar_value_t** getelementptr inbounds ([3 x %struct.halide_filter_argument_t], [3 x %struct.halide_filter_argument_t]* @_ZZ26halide_dotProduct_metadataE4args, i64 0, i64 0, i32 7), align 16, !dbg !5246, !tbaa !5259
  %42 = load i64**, i64*** %1, align 8, !dbg !5260, !tbaa !3266
  store i64** %42, i64*** getelementptr inbounds ([3 x %struct.halide_filter_argument_t], [3 x %struct.halide_filter_argument_t]* @_ZZ26halide_dotProduct_metadataE4args, i64 0, i64 0, i32 8), align 8, !dbg !5246, !tbaa !5261
  store i8* getelementptr inbounds ([8 x i8], [8 x i8]* @.str.32, i64 0, i64 0), i8** getelementptr inbounds ([3 x %struct.halide_filter_argument_t], [3 x %struct.halide_filter_argument_t]* @_ZZ26halide_dotProduct_metadataE4args, i64 0, i64 1, i32 0), align 16, !dbg !5262, !tbaa !5247
  store i32 1, i32* getelementptr inbounds ([3 x %struct.halide_filter_argument_t], [3 x %struct.halide_filter_argument_t]* @_ZZ26halide_dotProduct_metadataE4args, i64 0, i64 1, i32 1), align 8, !dbg !5262, !tbaa !5249
  store i32 1, i32* getelementptr inbounds ([3 x %struct.halide_filter_argument_t], [3 x %struct.halide_filter_argument_t]* @_ZZ26halide_dotProduct_metadataE4args, i64 0, i64 1, i32 2), align 4, !dbg !5262, !tbaa !5250
  invoke void @_ZN13halide_type_tC1E18halide_type_code_tht(%struct.halide_type_t* noundef nonnull align 2 dereferenceable(4) getelementptr inbounds ([3 x %struct.halide_filter_argument_t], [3 x %struct.halide_filter_argument_t]* @_ZZ26halide_dotProduct_metadataE4args, i64 0, i64 1, i32 3), i8 noundef zeroext 2, i8 noundef zeroext 32, i16 noundef zeroext 1)
          to label %43 unwind label %70, !dbg !5263

43:                                               ; preds = %37
  %44 = load %struct.halide_scalar_value_t*, %struct.halide_scalar_value_t** %7, align 8, !dbg !5264, !tbaa !3266
  store %struct.halide_scalar_value_t* %44, %struct.halide_scalar_value_t** getelementptr inbounds ([3 x %struct.halide_filter_argument_t], [3 x %struct.halide_filter_argument_t]* @_ZZ26halide_dotProduct_metadataE4args, i64 0, i64 1, i32 4), align 8, !dbg !5262, !tbaa !5253
  %45 = load %struct.halide_scalar_value_t*, %struct.halide_scalar_value_t** %8, align 8, !dbg !5265, !tbaa !3266
  store %struct.halide_scalar_value_t* %45, %struct.halide_scalar_value_t** getelementptr inbounds ([3 x %struct.halide_filter_argument_t], [3 x %struct.halide_filter_argument_t]* @_ZZ26halide_dotProduct_metadataE4args, i64 0, i64 1, i32 5), align 16, !dbg !5262, !tbaa !5255
  %46 = load %struct.halide_scalar_value_t*, %struct.halide_scalar_value_t** %9, align 8, !dbg !5266, !tbaa !3266
  store %struct.halide_scalar_value_t* %46, %struct.halide_scalar_value_t** getelementptr inbounds ([3 x %struct.halide_filter_argument_t], [3 x %struct.halide_filter_argument_t]* @_ZZ26halide_dotProduct_metadataE4args, i64 0, i64 1, i32 6), align 8, !dbg !5262, !tbaa !5257
  %47 = load %struct.halide_scalar_value_t*, %struct.halide_scalar_value_t** %10, align 8, !dbg !5267, !tbaa !3266
  store %struct.halide_scalar_value_t* %47, %struct.halide_scalar_value_t** getelementptr inbounds ([3 x %struct.halide_filter_argument_t], [3 x %struct.halide_filter_argument_t]* @_ZZ26halide_dotProduct_metadataE4args, i64 0, i64 1, i32 7), align 16, !dbg !5262, !tbaa !5259
  %48 = load i64**, i64*** %6, align 8, !dbg !5268, !tbaa !3266
  store i64** %48, i64*** getelementptr inbounds ([3 x %struct.halide_filter_argument_t], [3 x %struct.halide_filter_argument_t]* @_ZZ26halide_dotProduct_metadataE4args, i64 0, i64 1, i32 8), align 8, !dbg !5262, !tbaa !5261
  store i8* getelementptr inbounds ([7 x i8], [7 x i8]* @.str.34, i64 0, i64 0), i8** getelementptr inbounds ([3 x %struct.halide_filter_argument_t], [3 x %struct.halide_filter_argument_t]* @_ZZ26halide_dotProduct_metadataE4args, i64 0, i64 2, i32 0), align 16, !dbg !5269, !tbaa !5247
  store i32 2, i32* getelementptr inbounds ([3 x %struct.halide_filter_argument_t], [3 x %struct.halide_filter_argument_t]* @_ZZ26halide_dotProduct_metadataE4args, i64 0, i64 2, i32 1), align 8, !dbg !5269, !tbaa !5249
  store i32 1, i32* getelementptr inbounds ([3 x %struct.halide_filter_argument_t], [3 x %struct.halide_filter_argument_t]* @_ZZ26halide_dotProduct_metadataE4args, i64 0, i64 2, i32 2), align 4, !dbg !5269, !tbaa !5250
  invoke void @_ZN13halide_type_tC1E18halide_type_code_tht(%struct.halide_type_t* noundef nonnull align 2 dereferenceable(4) getelementptr inbounds ([3 x %struct.halide_filter_argument_t], [3 x %struct.halide_filter_argument_t]* @_ZZ26halide_dotProduct_metadataE4args, i64 0, i64 2, i32 3), i8 noundef zeroext 2, i8 noundef zeroext 32, i16 noundef zeroext 1)
          to label %49 unwind label %70, !dbg !5270

49:                                               ; preds = %43
  %50 = load %struct.halide_scalar_value_t*, %struct.halide_scalar_value_t** %11, align 8, !dbg !5271, !tbaa !3266
  store %struct.halide_scalar_value_t* %50, %struct.halide_scalar_value_t** getelementptr inbounds ([3 x %struct.halide_filter_argument_t], [3 x %struct.halide_filter_argument_t]* @_ZZ26halide_dotProduct_metadataE4args, i64 0, i64 2, i32 4), align 8, !dbg !5269, !tbaa !5253
  %51 = load %struct.halide_scalar_value_t*, %struct.halide_scalar_value_t** %12, align 8, !dbg !5272, !tbaa !3266
  store %struct.halide_scalar_value_t* %51, %struct.halide_scalar_value_t** getelementptr inbounds ([3 x %struct.halide_filter_argument_t], [3 x %struct.halide_filter_argument_t]* @_ZZ26halide_dotProduct_metadataE4args, i64 0, i64 2, i32 5), align 16, !dbg !5269, !tbaa !5255
  %52 = load %struct.halide_scalar_value_t*, %struct.halide_scalar_value_t** %13, align 8, !dbg !5273, !tbaa !3266
  store %struct.halide_scalar_value_t* %52, %struct.halide_scalar_value_t** getelementptr inbounds ([3 x %struct.halide_filter_argument_t], [3 x %struct.halide_filter_argument_t]* @_ZZ26halide_dotProduct_metadataE4args, i64 0, i64 2, i32 6), align 8, !dbg !5269, !tbaa !5257
  %53 = load %struct.halide_scalar_value_t*, %struct.halide_scalar_value_t** %14, align 8, !dbg !5274, !tbaa !3266
  store %struct.halide_scalar_value_t* %53, %struct.halide_scalar_value_t** getelementptr inbounds ([3 x %struct.halide_filter_argument_t], [3 x %struct.halide_filter_argument_t]* @_ZZ26halide_dotProduct_metadataE4args, i64 0, i64 2, i32 7), align 16, !dbg !5269, !tbaa !5259
  store i64** getelementptr inbounds ([2 x i64*], [2 x i64*]* @_ZZ26halide_dotProduct_metadataE24buffer_estimates__result, i64 0, i64 0), i64*** getelementptr inbounds ([3 x %struct.halide_filter_argument_t], [3 x %struct.halide_filter_argument_t]* @_ZZ26halide_dotProduct_metadataE4args, i64 0, i64 2, i32 8), align 8, !dbg !5269, !tbaa !5261
  %54 = call {}* @llvm.invariant.start.p0i8(i64 192, i8* bitcast ([3 x %struct.halide_filter_argument_t]* @_ZZ26halide_dotProduct_metadataE4args to i8*)), !dbg !5244
  call void @__cxa_guard_release(i64* @_ZGVZ26halide_dotProduct_metadataE4args) #9, !dbg !5244
  br label %55, !dbg !5244

55:                                               ; preds = %49, %33, %0
  %56 = bitcast %struct.halide_scalar_value_t** %14 to i8*, !dbg !5275
  call void @llvm.lifetime.end.p0i8(i64 8, i8* %56) #9, !dbg !5275
  %57 = bitcast %struct.halide_scalar_value_t** %13 to i8*, !dbg !5275
  call void @llvm.lifetime.end.p0i8(i64 8, i8* %57) #9, !dbg !5275
  %58 = bitcast %struct.halide_scalar_value_t** %12 to i8*, !dbg !5275
  call void @llvm.lifetime.end.p0i8(i64 8, i8* %58) #9, !dbg !5275
  %59 = bitcast %struct.halide_scalar_value_t** %11 to i8*, !dbg !5275
  call void @llvm.lifetime.end.p0i8(i64 8, i8* %59) #9, !dbg !5275
  %60 = bitcast %struct.halide_scalar_value_t** %10 to i8*, !dbg !5275
  call void @llvm.lifetime.end.p0i8(i64 8, i8* %60) #9, !dbg !5275
  %61 = bitcast %struct.halide_scalar_value_t** %9 to i8*, !dbg !5275
  call void @llvm.lifetime.end.p0i8(i64 8, i8* %61) #9, !dbg !5275
  %62 = bitcast %struct.halide_scalar_value_t** %8 to i8*, !dbg !5275
  call void @llvm.lifetime.end.p0i8(i64 8, i8* %62) #9, !dbg !5275
  %63 = bitcast %struct.halide_scalar_value_t** %7 to i8*, !dbg !5275
  call void @llvm.lifetime.end.p0i8(i64 8, i8* %63) #9, !dbg !5275
  %64 = bitcast i64*** %6 to i8*, !dbg !5275
  call void @llvm.lifetime.end.p0i8(i64 8, i8* %64) #9, !dbg !5275
  %65 = bitcast %struct.halide_scalar_value_t** %5 to i8*, !dbg !5275
  call void @llvm.lifetime.end.p0i8(i64 8, i8* %65) #9, !dbg !5275
  %66 = bitcast %struct.halide_scalar_value_t** %4 to i8*, !dbg !5275
  call void @llvm.lifetime.end.p0i8(i64 8, i8* %66) #9, !dbg !5275
  %67 = bitcast %struct.halide_scalar_value_t** %3 to i8*, !dbg !5275
  call void @llvm.lifetime.end.p0i8(i64 8, i8* %67) #9, !dbg !5275
  %68 = bitcast %struct.halide_scalar_value_t** %2 to i8*, !dbg !5275
  call void @llvm.lifetime.end.p0i8(i64 8, i8* %68) #9, !dbg !5275
  %69 = bitcast i64*** %1 to i8*, !dbg !5275
  call void @llvm.lifetime.end.p0i8(i64 8, i8* %69) #9, !dbg !5275
  ret %struct.halide_filter_metadata_t* @_ZZ26halide_dotProduct_metadataE2md, !dbg !5276

70:                                               ; preds = %43, %37, %36
  %71 = landingpad { i8*, i32 }
          cleanup, !dbg !5275
  %72 = extractvalue { i8*, i32 } %71, 0, !dbg !5275
  store i8* %72, i8** %15, align 8, !dbg !5275
  %73 = extractvalue { i8*, i32 } %71, 1, !dbg !5275
  store i32 %73, i32* %16, align 4, !dbg !5275
  call void @__cxa_guard_abort(i64* @_ZGVZ26halide_dotProduct_metadataE4args) #9, !dbg !5244
  %74 = bitcast %struct.halide_scalar_value_t** %14 to i8*, !dbg !5275
  call void @llvm.lifetime.end.p0i8(i64 8, i8* %74) #9, !dbg !5275
  %75 = bitcast %struct.halide_scalar_value_t** %13 to i8*, !dbg !5275
  call void @llvm.lifetime.end.p0i8(i64 8, i8* %75) #9, !dbg !5275
  %76 = bitcast %struct.halide_scalar_value_t** %12 to i8*, !dbg !5275
  call void @llvm.lifetime.end.p0i8(i64 8, i8* %76) #9, !dbg !5275
  %77 = bitcast %struct.halide_scalar_value_t** %11 to i8*, !dbg !5275
  call void @llvm.lifetime.end.p0i8(i64 8, i8* %77) #9, !dbg !5275
  %78 = bitcast %struct.halide_scalar_value_t** %10 to i8*, !dbg !5275
  call void @llvm.lifetime.end.p0i8(i64 8, i8* %78) #9, !dbg !5275
  %79 = bitcast %struct.halide_scalar_value_t** %9 to i8*, !dbg !5275
  call void @llvm.lifetime.end.p0i8(i64 8, i8* %79) #9, !dbg !5275
  %80 = bitcast %struct.halide_scalar_value_t** %8 to i8*, !dbg !5275
  call void @llvm.lifetime.end.p0i8(i64 8, i8* %80) #9, !dbg !5275
  %81 = bitcast %struct.halide_scalar_value_t** %7 to i8*, !dbg !5275
  call void @llvm.lifetime.end.p0i8(i64 8, i8* %81) #9, !dbg !5275
  %82 = bitcast i64*** %6 to i8*, !dbg !5275
  call void @llvm.lifetime.end.p0i8(i64 8, i8* %82) #9, !dbg !5275
  %83 = bitcast %struct.halide_scalar_value_t** %5 to i8*, !dbg !5275
  call void @llvm.lifetime.end.p0i8(i64 8, i8* %83) #9, !dbg !5275
  %84 = bitcast %struct.halide_scalar_value_t** %4 to i8*, !dbg !5275
  call void @llvm.lifetime.end.p0i8(i64 8, i8* %84) #9, !dbg !5275
  %85 = bitcast %struct.halide_scalar_value_t** %3 to i8*, !dbg !5275
  call void @llvm.lifetime.end.p0i8(i64 8, i8* %85) #9, !dbg !5275
  %86 = bitcast %struct.halide_scalar_value_t** %2 to i8*, !dbg !5275
  call void @llvm.lifetime.end.p0i8(i64 8, i8* %86) #9, !dbg !5275
  %87 = bitcast i64*** %1 to i8*, !dbg !5275
  call void @llvm.lifetime.end.p0i8(i64 8, i8* %87) #9, !dbg !5275
  br label %88, !dbg !5275

88:                                               ; preds = %70
  %89 = load i8*, i8** %15, align 8, !dbg !5275
  %90 = load i32, i32* %16, align 4, !dbg !5275
  %91 = insertvalue { i8*, i32 } undef, i8* %89, 0, !dbg !5275
  %92 = insertvalue { i8*, i32 } %91, i32 %90, 1, !dbg !5275
  resume { i8*, i32 } %92, !dbg !5275
}

; Function Attrs: nounwind
declare i32 @__cxa_guard_acquire(i64*) #9

; Function Attrs: alwaysinline ssp uwtable
define linkonce_odr hidden void @_ZN13halide_type_tC1E18halide_type_code_tht(%struct.halide_type_t* noundef nonnull align 2 dereferenceable(4) %0, i8 noundef zeroext %1, i8 noundef zeroext %2, i16 noundef zeroext %3) unnamed_addr #5 align 2 !dbg !5277 {
  %5 = alloca %struct.halide_type_t*, align 8
  %6 = alloca i8, align 1
  %7 = alloca i8, align 1
  %8 = alloca i16, align 2
  store %struct.halide_type_t* %0, %struct.halide_type_t** %5, align 8, !tbaa !3266
  call void @llvm.dbg.declare(metadata %struct.halide_type_t** %5, metadata !5279, metadata !DIExpression()), !dbg !5283
  store i8 %1, i8* %6, align 1, !tbaa !5284
  call void @llvm.dbg.declare(metadata i8* %6, metadata !5280, metadata !DIExpression()), !dbg !5285
  store i8 %2, i8* %7, align 1, !tbaa !5286
  call void @llvm.dbg.declare(metadata i8* %7, metadata !5281, metadata !DIExpression()), !dbg !5287
  store i16 %3, i16* %8, align 2, !tbaa !5288
  call void @llvm.dbg.declare(metadata i16* %8, metadata !5282, metadata !DIExpression()), !dbg !5289
  %9 = load %struct.halide_type_t*, %struct.halide_type_t** %5, align 8
  %10 = load i8, i8* %6, align 1, !dbg !5290, !tbaa !5284
  %11 = load i8, i8* %7, align 1, !dbg !5290, !tbaa !5286
  %12 = load i16, i16* %8, align 2, !dbg !5290, !tbaa !5288
  call void @_ZN13halide_type_tC2E18halide_type_code_tht(%struct.halide_type_t* noundef nonnull align 2 dereferenceable(4) %9, i8 noundef zeroext %10, i8 noundef zeroext %11, i16 noundef zeroext %12), !dbg !5290
  ret void, !dbg !5291
}

declare i32 @__gxx_personality_v0(...)

; Function Attrs: argmemonly nofree nosync nounwind willreturn
declare {}* @llvm.invariant.start.p0i8(i64 immarg, i8* nocapture) #2

; Function Attrs: nounwind
declare void @__cxa_guard_abort(i64*) #9

; Function Attrs: nounwind
declare void @__cxa_guard_release(i64*) #9

; Function Attrs: alwaysinline nounwind ssp uwtable
define linkonce_odr hidden void @_ZN13halide_type_tC2Ev(%struct.halide_type_t* noundef nonnull align 2 dereferenceable(4) %0) unnamed_addr #10 align 2 !dbg !5292 {
  %2 = alloca %struct.halide_type_t*, align 8
  store %struct.halide_type_t* %0, %struct.halide_type_t** %2, align 8, !tbaa !3266
  call void @llvm.dbg.declare(metadata %struct.halide_type_t** %2, metadata !5294, metadata !DIExpression()), !dbg !5295
  %3 = load %struct.halide_type_t*, %struct.halide_type_t** %2, align 8
  %4 = getelementptr inbounds %struct.halide_type_t, %struct.halide_type_t* %3, i32 0, i32 0, !dbg !5296
  store i8 0, i8* %4, align 2, !dbg !5296, !tbaa !5297
  %5 = getelementptr inbounds %struct.halide_type_t, %struct.halide_type_t* %3, i32 0, i32 1, !dbg !5298
  store i8 0, i8* %5, align 1, !dbg !5298, !tbaa !5299
  %6 = getelementptr inbounds %struct.halide_type_t, %struct.halide_type_t* %3, i32 0, i32 2, !dbg !5300
  store i16 0, i16* %6, align 2, !dbg !5300, !tbaa !5301
  ret void, !dbg !5302
}

; Function Attrs: alwaysinline mustprogress nounwind ssp uwtable
define linkonce_odr hidden noundef i32 @_ZNK13halide_type_t6as_u32Ev(%struct.halide_type_t* noundef nonnull align 2 dereferenceable(4) %0) #11 align 2 !dbg !5303 {
  %2 = alloca %struct.halide_type_t*, align 8
  store %struct.halide_type_t* %0, %struct.halide_type_t** %2, align 8, !tbaa !3266
  call void @llvm.dbg.declare(metadata %struct.halide_type_t** %2, metadata !5305, metadata !DIExpression()), !dbg !5307
  %3 = load %struct.halide_type_t*, %struct.halide_type_t** %2, align 8
  %4 = getelementptr inbounds %struct.halide_type_t, %struct.halide_type_t* %3, i32 0, i32 0, !dbg !5308
  %5 = load i8, i8* %4, align 2, !dbg !5308, !tbaa !5297
  %6 = zext i8 %5 to i32, !dbg !5309
  %7 = getelementptr inbounds %struct.halide_type_t, %struct.halide_type_t* %3, i32 0, i32 1, !dbg !5310
  %8 = load i8, i8* %7, align 1, !dbg !5310, !tbaa !5299
  %9 = zext i8 %8 to i16, !dbg !5310
  %10 = zext i16 %9 to i32, !dbg !5311
  %11 = shl i32 %10, 8, !dbg !5312
  %12 = or i32 %6, %11, !dbg !5313
  %13 = getelementptr inbounds %struct.halide_type_t, %struct.halide_type_t* %3, i32 0, i32 2, !dbg !5314
  %14 = load i16, i16* %13, align 2, !dbg !5314, !tbaa !5301
  %15 = zext i16 %14 to i32, !dbg !5314
  %16 = shl i32 %15, 16, !dbg !5315
  %17 = or i32 %12, %16, !dbg !5316
  ret i32 %17, !dbg !5317
}

; Function Attrs: alwaysinline mustprogress ssp uwtable
define linkonce_odr hidden noundef zeroext i1 @_ZNK15halide_buffer_t12device_dirtyEv(%struct.halide_buffer_t* noundef nonnull align 8 dereferenceable(56) %0) #12 align 2 !dbg !5318 {
  %2 = alloca %struct.halide_buffer_t*, align 8
  store %struct.halide_buffer_t* %0, %struct.halide_buffer_t** %2, align 8, !tbaa !3266
  call void @llvm.dbg.declare(metadata %struct.halide_buffer_t** %2, metadata !5320, metadata !DIExpression()), !dbg !5321
  %3 = load %struct.halide_buffer_t*, %struct.halide_buffer_t** %2, align 8
  %4 = call noundef zeroext i1 @_ZNK15halide_buffer_t8get_flagE19halide_buffer_flags(%struct.halide_buffer_t* noundef nonnull align 8 dereferenceable(56) %3, i32 noundef 2), !dbg !5322
  ret i1 %4, !dbg !5323
}

; Function Attrs: alwaysinline mustprogress nounwind ssp uwtable
define linkonce_odr hidden noundef zeroext i1 @_ZNK15halide_buffer_t8get_flagE19halide_buffer_flags(%struct.halide_buffer_t* noundef nonnull align 8 dereferenceable(56) %0, i32 noundef %1) #11 align 2 !dbg !5324 {
  %3 = alloca %struct.halide_buffer_t*, align 8
  %4 = alloca i32, align 4
  store %struct.halide_buffer_t* %0, %struct.halide_buffer_t** %3, align 8, !tbaa !3266
  call void @llvm.dbg.declare(metadata %struct.halide_buffer_t** %3, metadata !5326, metadata !DIExpression()), !dbg !5328
  store i32 %1, i32* %4, align 4, !tbaa !5329
  call void @llvm.dbg.declare(metadata i32* %4, metadata !5327, metadata !DIExpression()), !dbg !5331
  %5 = load %struct.halide_buffer_t*, %struct.halide_buffer_t** %3, align 8
  %6 = getelementptr inbounds %struct.halide_buffer_t, %struct.halide_buffer_t* %5, i32 0, i32 3, !dbg !5332
  %7 = load i64, i64* %6, align 8, !dbg !5332, !tbaa !5180
  %8 = load i32, i32* %4, align 4, !dbg !5333, !tbaa !5329
  %9 = zext i32 %8 to i64, !dbg !5333
  %10 = and i64 %7, %9, !dbg !5334
  %11 = icmp ne i64 %10, 0, !dbg !5335
  ret i1 %11, !dbg !5336
}

; Function Attrs: alwaysinline nounwind ssp uwtable
define linkonce_odr hidden void @_ZN18halide_dimension_tC2Eiiij(%struct.halide_dimension_t* noundef nonnull align 4 dereferenceable(16) %0, i32 noundef %1, i32 noundef %2, i32 noundef %3, i32 noundef %4) unnamed_addr #10 align 2 !dbg !5337 {
  %6 = alloca %struct.halide_dimension_t*, align 8
  %7 = alloca i32, align 4
  %8 = alloca i32, align 4
  %9 = alloca i32, align 4
  %10 = alloca i32, align 4
  store %struct.halide_dimension_t* %0, %struct.halide_dimension_t** %6, align 8, !tbaa !3266
  call void @llvm.dbg.declare(metadata %struct.halide_dimension_t** %6, metadata !5339, metadata !DIExpression()), !dbg !5344
  store i32 %1, i32* %7, align 4, !tbaa !3272
  call void @llvm.dbg.declare(metadata i32* %7, metadata !5340, metadata !DIExpression()), !dbg !5345
  store i32 %2, i32* %8, align 4, !tbaa !3272
  call void @llvm.dbg.declare(metadata i32* %8, metadata !5341, metadata !DIExpression()), !dbg !5346
  store i32 %3, i32* %9, align 4, !tbaa !3272
  call void @llvm.dbg.declare(metadata i32* %9, metadata !5342, metadata !DIExpression()), !dbg !5347
  store i32 %4, i32* %10, align 4, !tbaa !3272
  call void @llvm.dbg.declare(metadata i32* %10, metadata !5343, metadata !DIExpression()), !dbg !5348
  %11 = load %struct.halide_dimension_t*, %struct.halide_dimension_t** %6, align 8
  %12 = getelementptr inbounds %struct.halide_dimension_t, %struct.halide_dimension_t* %11, i32 0, i32 0, !dbg !5349
  %13 = load i32, i32* %7, align 4, !dbg !5350, !tbaa !3272
  store i32 %13, i32* %12, align 4, !dbg !5349, !tbaa !5019
  %14 = getelementptr inbounds %struct.halide_dimension_t, %struct.halide_dimension_t* %11, i32 0, i32 1, !dbg !5351
  %15 = load i32, i32* %8, align 4, !dbg !5352, !tbaa !3272
  store i32 %15, i32* %14, align 4, !dbg !5351, !tbaa !5032
  %16 = getelementptr inbounds %struct.halide_dimension_t, %struct.halide_dimension_t* %11, i32 0, i32 2, !dbg !5353
  %17 = load i32, i32* %9, align 4, !dbg !5354, !tbaa !3272
  store i32 %17, i32* %16, align 4, !dbg !5353, !tbaa !5044
  %18 = getelementptr inbounds %struct.halide_dimension_t, %struct.halide_dimension_t* %11, i32 0, i32 3, !dbg !5355
  %19 = load i32, i32* %10, align 4, !dbg !5356, !tbaa !3272
  store i32 %19, i32* %18, align 4, !dbg !5355, !tbaa !5357
  ret void, !dbg !5358
}

; Function Attrs: inlinehint mustprogress nounwind ssp uwtable
define linkonce_odr hidden noundef float @_Z11reinterpretIfjET_RKT0_(i32* noundef nonnull align 4 dereferenceable(4) %0) #7 !dbg !5359 {
  %2 = alloca i32*, align 8
  %3 = alloca float, align 4
  store i32* %0, i32** %2, align 8, !tbaa !3266
  call void @llvm.dbg.declare(metadata i32** %2, metadata !5365, metadata !DIExpression()), !dbg !5370
  %4 = bitcast float* %3 to i8*, !dbg !5371
  call void @llvm.lifetime.start.p0i8(i64 4, i8* %4) #9, !dbg !5371
  call void @llvm.dbg.declare(metadata float* %3, metadata !5366, metadata !DIExpression()), !dbg !5372
  %5 = bitcast float* %3 to i8*, !dbg !5373
  %6 = load i32*, i32** %2, align 8, !dbg !5374, !tbaa !3266
  %7 = bitcast i32* %6 to i8*, !dbg !5373
  call void @llvm.memcpy.p0i8.p0i8.i64(i8* align 4 %5, i8* align 4 %7, i64 4, i1 false), !dbg !5373
  %8 = load float, float* %3, align 4, !dbg !5375, !tbaa !4874
  %9 = bitcast float* %3 to i8*, !dbg !5376
  call void @llvm.lifetime.end.p0i8(i64 4, i8* %9) #9, !dbg !5376
  ret float %8, !dbg !5377
}

; Function Attrs: alwaysinline nounwind ssp uwtable
define linkonce_odr hidden void @_ZN13halide_type_tC2E18halide_type_code_tht(%struct.halide_type_t* noundef nonnull align 2 dereferenceable(4) %0, i8 noundef zeroext %1, i8 noundef zeroext %2, i16 noundef zeroext %3) unnamed_addr #10 align 2 !dbg !5378 {
  %5 = alloca %struct.halide_type_t*, align 8
  %6 = alloca i8, align 1
  %7 = alloca i8, align 1
  %8 = alloca i16, align 2
  store %struct.halide_type_t* %0, %struct.halide_type_t** %5, align 8, !tbaa !3266
  call void @llvm.dbg.declare(metadata %struct.halide_type_t** %5, metadata !5380, metadata !DIExpression()), !dbg !5384
  store i8 %1, i8* %6, align 1, !tbaa !5284
  call void @llvm.dbg.declare(metadata i8* %6, metadata !5381, metadata !DIExpression()), !dbg !5385
  store i8 %2, i8* %7, align 1, !tbaa !5286
  call void @llvm.dbg.declare(metadata i8* %7, metadata !5382, metadata !DIExpression()), !dbg !5386
  store i16 %3, i16* %8, align 2, !tbaa !5288
  call void @llvm.dbg.declare(metadata i16* %8, metadata !5383, metadata !DIExpression()), !dbg !5387
  %9 = load %struct.halide_type_t*, %struct.halide_type_t** %5, align 8
  %10 = getelementptr inbounds %struct.halide_type_t, %struct.halide_type_t* %9, i32 0, i32 0, !dbg !5388
  %11 = load i8, i8* %6, align 1, !dbg !5389, !tbaa !5284
  store i8 %11, i8* %10, align 2, !dbg !5388, !tbaa !5297
